
ctarget:     file format elf64-x86-64


Disassembly of section .init:

0000000000400c60 <_init>:
  400c60:	48 83 ec 08          	sub    $0x8,%rsp
  400c64:	48 8b 05 8d 33 20 00 	mov    0x20338d(%rip),%rax        # 603ff8 <_DYNAMIC+0x1d0>
  400c6b:	48 85 c0             	test   %rax,%rax
  400c6e:	74 05                	je     400c75 <_init+0x15>
  400c70:	e8 2b 01 00 00       	callq  400da0 <__gmon_start__@plt>
  400c75:	48 83 c4 08          	add    $0x8,%rsp
  400c79:	c3                   	retq   

Disassembly of section .plt:

0000000000400c80 <strcasecmp@plt-0x10>:
  400c80:	ff 35 82 33 20 00    	pushq  0x203382(%rip)        # 604008 <_GLOBAL_OFFSET_TABLE_+0x8>
  400c86:	ff 25 84 33 20 00    	jmpq   *0x203384(%rip)        # 604010 <_GLOBAL_OFFSET_TABLE_+0x10>
  400c8c:	0f 1f 40 00          	nopl   0x0(%rax)

0000000000400c90 <strcasecmp@plt>:
  400c90:	ff 25 82 33 20 00    	jmpq   *0x203382(%rip)        # 604018 <_GLOBAL_OFFSET_TABLE_+0x18>
  400c96:	68 00 00 00 00       	pushq  $0x0
  400c9b:	e9 e0 ff ff ff       	jmpq   400c80 <_init+0x20>

0000000000400ca0 <__errno_location@plt>:
  400ca0:	ff 25 7a 33 20 00    	jmpq   *0x20337a(%rip)        # 604020 <_GLOBAL_OFFSET_TABLE_+0x20>
  400ca6:	68 01 00 00 00       	pushq  $0x1
  400cab:	e9 d0 ff ff ff       	jmpq   400c80 <_init+0x20>

0000000000400cb0 <srandom@plt>:
  400cb0:	ff 25 72 33 20 00    	jmpq   *0x203372(%rip)        # 604028 <_GLOBAL_OFFSET_TABLE_+0x28>
  400cb6:	68 02 00 00 00       	pushq  $0x2
  400cbb:	e9 c0 ff ff ff       	jmpq   400c80 <_init+0x20>

0000000000400cc0 <strncmp@plt>:
  400cc0:	ff 25 6a 33 20 00    	jmpq   *0x20336a(%rip)        # 604030 <_GLOBAL_OFFSET_TABLE_+0x30>
  400cc6:	68 03 00 00 00       	pushq  $0x3
  400ccb:	e9 b0 ff ff ff       	jmpq   400c80 <_init+0x20>

0000000000400cd0 <strcpy@plt>:
  400cd0:	ff 25 62 33 20 00    	jmpq   *0x203362(%rip)        # 604038 <_GLOBAL_OFFSET_TABLE_+0x38>
  400cd6:	68 04 00 00 00       	pushq  $0x4
  400cdb:	e9 a0 ff ff ff       	jmpq   400c80 <_init+0x20>

0000000000400ce0 <puts@plt>:
  400ce0:	ff 25 5a 33 20 00    	jmpq   *0x20335a(%rip)        # 604040 <_GLOBAL_OFFSET_TABLE_+0x40>
  400ce6:	68 05 00 00 00       	pushq  $0x5
  400ceb:	e9 90 ff ff ff       	jmpq   400c80 <_init+0x20>

0000000000400cf0 <write@plt>:
  400cf0:	ff 25 52 33 20 00    	jmpq   *0x203352(%rip)        # 604048 <_GLOBAL_OFFSET_TABLE_+0x48>
  400cf6:	68 06 00 00 00       	pushq  $0x6
  400cfb:	e9 80 ff ff ff       	jmpq   400c80 <_init+0x20>

0000000000400d00 <__stack_chk_fail@plt>:
  400d00:	ff 25 4a 33 20 00    	jmpq   *0x20334a(%rip)        # 604050 <_GLOBAL_OFFSET_TABLE_+0x50>
  400d06:	68 07 00 00 00       	pushq  $0x7
  400d0b:	e9 70 ff ff ff       	jmpq   400c80 <_init+0x20>

0000000000400d10 <mmap@plt>:
  400d10:	ff 25 42 33 20 00    	jmpq   *0x203342(%rip)        # 604058 <_GLOBAL_OFFSET_TABLE_+0x58>
  400d16:	68 08 00 00 00       	pushq  $0x8
  400d1b:	e9 60 ff ff ff       	jmpq   400c80 <_init+0x20>

0000000000400d20 <memset@plt>:
  400d20:	ff 25 3a 33 20 00    	jmpq   *0x20333a(%rip)        # 604060 <_GLOBAL_OFFSET_TABLE_+0x60>
  400d26:	68 09 00 00 00       	pushq  $0x9
  400d2b:	e9 50 ff ff ff       	jmpq   400c80 <_init+0x20>

0000000000400d30 <alarm@plt>:
  400d30:	ff 25 32 33 20 00    	jmpq   *0x203332(%rip)        # 604068 <_GLOBAL_OFFSET_TABLE_+0x68>
  400d36:	68 0a 00 00 00       	pushq  $0xa
  400d3b:	e9 40 ff ff ff       	jmpq   400c80 <_init+0x20>

0000000000400d40 <close@plt>:
  400d40:	ff 25 2a 33 20 00    	jmpq   *0x20332a(%rip)        # 604070 <_GLOBAL_OFFSET_TABLE_+0x70>
  400d46:	68 0b 00 00 00       	pushq  $0xb
  400d4b:	e9 30 ff ff ff       	jmpq   400c80 <_init+0x20>

0000000000400d50 <read@plt>:
  400d50:	ff 25 22 33 20 00    	jmpq   *0x203322(%rip)        # 604078 <_GLOBAL_OFFSET_TABLE_+0x78>
  400d56:	68 0c 00 00 00       	pushq  $0xc
  400d5b:	e9 20 ff ff ff       	jmpq   400c80 <_init+0x20>

0000000000400d60 <__libc_start_main@plt>:
  400d60:	ff 25 1a 33 20 00    	jmpq   *0x20331a(%rip)        # 604080 <_GLOBAL_OFFSET_TABLE_+0x80>
  400d66:	68 0d 00 00 00       	pushq  $0xd
  400d6b:	e9 10 ff ff ff       	jmpq   400c80 <_init+0x20>

0000000000400d70 <signal@plt>:
  400d70:	ff 25 12 33 20 00    	jmpq   *0x203312(%rip)        # 604088 <_GLOBAL_OFFSET_TABLE_+0x88>
  400d76:	68 0e 00 00 00       	pushq  $0xe
  400d7b:	e9 00 ff ff ff       	jmpq   400c80 <_init+0x20>

0000000000400d80 <gethostbyname@plt>:
  400d80:	ff 25 0a 33 20 00    	jmpq   *0x20330a(%rip)        # 604090 <_GLOBAL_OFFSET_TABLE_+0x90>
  400d86:	68 0f 00 00 00       	pushq  $0xf
  400d8b:	e9 f0 fe ff ff       	jmpq   400c80 <_init+0x20>

0000000000400d90 <__memmove_chk@plt>:
  400d90:	ff 25 02 33 20 00    	jmpq   *0x203302(%rip)        # 604098 <_GLOBAL_OFFSET_TABLE_+0x98>
  400d96:	68 10 00 00 00       	pushq  $0x10
  400d9b:	e9 e0 fe ff ff       	jmpq   400c80 <_init+0x20>

0000000000400da0 <__gmon_start__@plt>:
  400da0:	ff 25 fa 32 20 00    	jmpq   *0x2032fa(%rip)        # 6040a0 <_GLOBAL_OFFSET_TABLE_+0xa0>
  400da6:	68 11 00 00 00       	pushq  $0x11
  400dab:	e9 d0 fe ff ff       	jmpq   400c80 <_init+0x20>

0000000000400db0 <strtol@plt>:
  400db0:	ff 25 f2 32 20 00    	jmpq   *0x2032f2(%rip)        # 6040a8 <_GLOBAL_OFFSET_TABLE_+0xa8>
  400db6:	68 12 00 00 00       	pushq  $0x12
  400dbb:	e9 c0 fe ff ff       	jmpq   400c80 <_init+0x20>

0000000000400dc0 <memcpy@plt>:
  400dc0:	ff 25 ea 32 20 00    	jmpq   *0x2032ea(%rip)        # 6040b0 <_GLOBAL_OFFSET_TABLE_+0xb0>
  400dc6:	68 13 00 00 00       	pushq  $0x13
  400dcb:	e9 b0 fe ff ff       	jmpq   400c80 <_init+0x20>

0000000000400dd0 <time@plt>:
  400dd0:	ff 25 e2 32 20 00    	jmpq   *0x2032e2(%rip)        # 6040b8 <_GLOBAL_OFFSET_TABLE_+0xb8>
  400dd6:	68 14 00 00 00       	pushq  $0x14
  400ddb:	e9 a0 fe ff ff       	jmpq   400c80 <_init+0x20>

0000000000400de0 <random@plt>:
  400de0:	ff 25 da 32 20 00    	jmpq   *0x2032da(%rip)        # 6040c0 <_GLOBAL_OFFSET_TABLE_+0xc0>
  400de6:	68 15 00 00 00       	pushq  $0x15
  400deb:	e9 90 fe ff ff       	jmpq   400c80 <_init+0x20>

0000000000400df0 <_IO_getc@plt>:
  400df0:	ff 25 d2 32 20 00    	jmpq   *0x2032d2(%rip)        # 6040c8 <_GLOBAL_OFFSET_TABLE_+0xc8>
  400df6:	68 16 00 00 00       	pushq  $0x16
  400dfb:	e9 80 fe ff ff       	jmpq   400c80 <_init+0x20>

0000000000400e00 <__isoc99_sscanf@plt>:
  400e00:	ff 25 ca 32 20 00    	jmpq   *0x2032ca(%rip)        # 6040d0 <_GLOBAL_OFFSET_TABLE_+0xd0>
  400e06:	68 17 00 00 00       	pushq  $0x17
  400e0b:	e9 70 fe ff ff       	jmpq   400c80 <_init+0x20>

0000000000400e10 <munmap@plt>:
  400e10:	ff 25 c2 32 20 00    	jmpq   *0x2032c2(%rip)        # 6040d8 <_GLOBAL_OFFSET_TABLE_+0xd8>
  400e16:	68 18 00 00 00       	pushq  $0x18
  400e1b:	e9 60 fe ff ff       	jmpq   400c80 <_init+0x20>

0000000000400e20 <__printf_chk@plt>:
  400e20:	ff 25 ba 32 20 00    	jmpq   *0x2032ba(%rip)        # 6040e0 <_GLOBAL_OFFSET_TABLE_+0xe0>
  400e26:	68 19 00 00 00       	pushq  $0x19
  400e2b:	e9 50 fe ff ff       	jmpq   400c80 <_init+0x20>

0000000000400e30 <fopen@plt>:
  400e30:	ff 25 b2 32 20 00    	jmpq   *0x2032b2(%rip)        # 6040e8 <_GLOBAL_OFFSET_TABLE_+0xe8>
  400e36:	68 1a 00 00 00       	pushq  $0x1a
  400e3b:	e9 40 fe ff ff       	jmpq   400c80 <_init+0x20>

0000000000400e40 <getopt@plt>:
  400e40:	ff 25 aa 32 20 00    	jmpq   *0x2032aa(%rip)        # 6040f0 <_GLOBAL_OFFSET_TABLE_+0xf0>
  400e46:	68 1b 00 00 00       	pushq  $0x1b
  400e4b:	e9 30 fe ff ff       	jmpq   400c80 <_init+0x20>

0000000000400e50 <strtoul@plt>:
  400e50:	ff 25 a2 32 20 00    	jmpq   *0x2032a2(%rip)        # 6040f8 <_GLOBAL_OFFSET_TABLE_+0xf8>
  400e56:	68 1c 00 00 00       	pushq  $0x1c
  400e5b:	e9 20 fe ff ff       	jmpq   400c80 <_init+0x20>

0000000000400e60 <gethostname@plt>:
  400e60:	ff 25 9a 32 20 00    	jmpq   *0x20329a(%rip)        # 604100 <_GLOBAL_OFFSET_TABLE_+0x100>
  400e66:	68 1d 00 00 00       	pushq  $0x1d
  400e6b:	e9 10 fe ff ff       	jmpq   400c80 <_init+0x20>

0000000000400e70 <exit@plt>:
  400e70:	ff 25 92 32 20 00    	jmpq   *0x203292(%rip)        # 604108 <_GLOBAL_OFFSET_TABLE_+0x108>
  400e76:	68 1e 00 00 00       	pushq  $0x1e
  400e7b:	e9 00 fe ff ff       	jmpq   400c80 <_init+0x20>

0000000000400e80 <connect@plt>:
  400e80:	ff 25 8a 32 20 00    	jmpq   *0x20328a(%rip)        # 604110 <_GLOBAL_OFFSET_TABLE_+0x110>
  400e86:	68 1f 00 00 00       	pushq  $0x1f
  400e8b:	e9 f0 fd ff ff       	jmpq   400c80 <_init+0x20>

0000000000400e90 <__fprintf_chk@plt>:
  400e90:	ff 25 82 32 20 00    	jmpq   *0x203282(%rip)        # 604118 <_GLOBAL_OFFSET_TABLE_+0x118>
  400e96:	68 20 00 00 00       	pushq  $0x20
  400e9b:	e9 e0 fd ff ff       	jmpq   400c80 <_init+0x20>

0000000000400ea0 <__sprintf_chk@plt>:
  400ea0:	ff 25 7a 32 20 00    	jmpq   *0x20327a(%rip)        # 604120 <_GLOBAL_OFFSET_TABLE_+0x120>
  400ea6:	68 21 00 00 00       	pushq  $0x21
  400eab:	e9 d0 fd ff ff       	jmpq   400c80 <_init+0x20>

0000000000400eb0 <socket@plt>:
  400eb0:	ff 25 72 32 20 00    	jmpq   *0x203272(%rip)        # 604128 <_GLOBAL_OFFSET_TABLE_+0x128>
  400eb6:	68 22 00 00 00       	pushq  $0x22
  400ebb:	e9 c0 fd ff ff       	jmpq   400c80 <_init+0x20>

Disassembly of section .text:

0000000000400ec0 <_start>:
  400ec0:	31 ed                	xor    %ebp,%ebp
  400ec2:	49 89 d1             	mov    %rdx,%r9
  400ec5:	5e                   	pop    %rsi
  400ec6:	48 89 e2             	mov    %rsp,%rdx
  400ec9:	48 83 e4 f0          	and    $0xfffffffffffffff0,%rsp
  400ecd:	50                   	push   %rax
  400ece:	54                   	push   %rsp
  400ecf:	49 c7 c0 a0 2e 40 00 	mov    $0x402ea0,%r8
  400ed6:	48 c7 c1 30 2e 40 00 	mov    $0x402e30,%rcx
  400edd:	48 c7 c7 bf 11 40 00 	mov    $0x4011bf,%rdi
  400ee4:	e8 77 fe ff ff       	callq  400d60 <__libc_start_main@plt>
  400ee9:	f4                   	hlt    
  400eea:	66 0f 1f 44 00 00    	nopw   0x0(%rax,%rax,1)

0000000000400ef0 <deregister_tm_clones>:
  400ef0:	b8 b7 44 60 00       	mov    $0x6044b7,%eax
  400ef5:	55                   	push   %rbp
  400ef6:	48 2d b0 44 60 00    	sub    $0x6044b0,%rax
  400efc:	48 83 f8 0e          	cmp    $0xe,%rax
  400f00:	48 89 e5             	mov    %rsp,%rbp
  400f03:	77 02                	ja     400f07 <deregister_tm_clones+0x17>
  400f05:	5d                   	pop    %rbp
  400f06:	c3                   	retq   
  400f07:	b8 00 00 00 00       	mov    $0x0,%eax
  400f0c:	48 85 c0             	test   %rax,%rax
  400f0f:	74 f4                	je     400f05 <deregister_tm_clones+0x15>
  400f11:	5d                   	pop    %rbp
  400f12:	bf b0 44 60 00       	mov    $0x6044b0,%edi
  400f17:	ff e0                	jmpq   *%rax
  400f19:	0f 1f 80 00 00 00 00 	nopl   0x0(%rax)

0000000000400f20 <register_tm_clones>:
  400f20:	b8 b0 44 60 00       	mov    $0x6044b0,%eax
  400f25:	55                   	push   %rbp
  400f26:	48 2d b0 44 60 00    	sub    $0x6044b0,%rax
  400f2c:	48 c1 f8 03          	sar    $0x3,%rax
  400f30:	48 89 e5             	mov    %rsp,%rbp
  400f33:	48 89 c2             	mov    %rax,%rdx
  400f36:	48 c1 ea 3f          	shr    $0x3f,%rdx
  400f3a:	48 01 d0             	add    %rdx,%rax
  400f3d:	48 d1 f8             	sar    %rax
  400f40:	75 02                	jne    400f44 <register_tm_clones+0x24>
  400f42:	5d                   	pop    %rbp
  400f43:	c3                   	retq   
  400f44:	ba 00 00 00 00       	mov    $0x0,%edx
  400f49:	48 85 d2             	test   %rdx,%rdx
  400f4c:	74 f4                	je     400f42 <register_tm_clones+0x22>
  400f4e:	5d                   	pop    %rbp
  400f4f:	48 89 c6             	mov    %rax,%rsi
  400f52:	bf b0 44 60 00       	mov    $0x6044b0,%edi
  400f57:	ff e2                	jmpq   *%rdx
  400f59:	0f 1f 80 00 00 00 00 	nopl   0x0(%rax)

0000000000400f60 <__do_global_dtors_aux>:
  400f60:	80 3d 89 35 20 00 00 	cmpb   $0x0,0x203589(%rip)        # 6044f0 <completed.6973>
  400f67:	75 11                	jne    400f7a <__do_global_dtors_aux+0x1a>
  400f69:	55                   	push   %rbp
  400f6a:	48 89 e5             	mov    %rsp,%rbp
  400f6d:	e8 7e ff ff ff       	callq  400ef0 <deregister_tm_clones>
  400f72:	5d                   	pop    %rbp
  400f73:	c6 05 76 35 20 00 01 	movb   $0x1,0x203576(%rip)        # 6044f0 <completed.6973>
  400f7a:	f3 c3                	repz retq 
  400f7c:	0f 1f 40 00          	nopl   0x0(%rax)

0000000000400f80 <frame_dummy>:
  400f80:	48 83 3d 98 2e 20 00 	cmpq   $0x0,0x202e98(%rip)        # 603e20 <__JCR_END__>
  400f87:	00 
  400f88:	74 1e                	je     400fa8 <frame_dummy+0x28>
  400f8a:	b8 00 00 00 00       	mov    $0x0,%eax
  400f8f:	48 85 c0             	test   %rax,%rax
  400f92:	74 14                	je     400fa8 <frame_dummy+0x28>
  400f94:	55                   	push   %rbp
  400f95:	bf 20 3e 60 00       	mov    $0x603e20,%edi
  400f9a:	48 89 e5             	mov    %rsp,%rbp
  400f9d:	ff d0                	callq  *%rax
  400f9f:	5d                   	pop    %rbp
  400fa0:	e9 7b ff ff ff       	jmpq   400f20 <register_tm_clones>
  400fa5:	0f 1f 00             	nopl   (%rax)
  400fa8:	e9 73 ff ff ff       	jmpq   400f20 <register_tm_clones>
  400fad:	0f 1f 00             	nopl   (%rax)

0000000000400fb0 <usage>:
  400fb0:	48 83 ec 08          	sub    $0x8,%rsp
  400fb4:	48 89 fa             	mov    %rdi,%rdx
  400fb7:	83 3d 6a 35 20 00 00 	cmpl   $0x0,0x20356a(%rip)        # 604528 <is_checker>
  400fbe:	74 3e                	je     400ffe <usage+0x4e>
  400fc0:	be b8 2e 40 00       	mov    $0x402eb8,%esi
  400fc5:	bf 01 00 00 00       	mov    $0x1,%edi
  400fca:	b8 00 00 00 00       	mov    $0x0,%eax
  400fcf:	e8 4c fe ff ff       	callq  400e20 <__printf_chk@plt>
  400fd4:	bf f0 2e 40 00       	mov    $0x402ef0,%edi
  400fd9:	e8 02 fd ff ff       	callq  400ce0 <puts@plt>
  400fde:	bf 68 30 40 00       	mov    $0x403068,%edi
  400fe3:	e8 f8 fc ff ff       	callq  400ce0 <puts@plt>
  400fe8:	bf 18 2f 40 00       	mov    $0x402f18,%edi
  400fed:	e8 ee fc ff ff       	callq  400ce0 <puts@plt>
  400ff2:	bf 82 30 40 00       	mov    $0x403082,%edi
  400ff7:	e8 e4 fc ff ff       	callq  400ce0 <puts@plt>
  400ffc:	eb 32                	jmp    401030 <usage+0x80>
  400ffe:	be 9e 30 40 00       	mov    $0x40309e,%esi
  401003:	bf 01 00 00 00       	mov    $0x1,%edi
  401008:	b8 00 00 00 00       	mov    $0x0,%eax
  40100d:	e8 0e fe ff ff       	callq  400e20 <__printf_chk@plt>
  401012:	bf 40 2f 40 00       	mov    $0x402f40,%edi
  401017:	e8 c4 fc ff ff       	callq  400ce0 <puts@plt>
  40101c:	bf 68 2f 40 00       	mov    $0x402f68,%edi
  401021:	e8 ba fc ff ff       	callq  400ce0 <puts@plt>
  401026:	bf bc 30 40 00       	mov    $0x4030bc,%edi
  40102b:	e8 b0 fc ff ff       	callq  400ce0 <puts@plt>
  401030:	bf 00 00 00 00       	mov    $0x0,%edi
  401035:	e8 36 fe ff ff       	callq  400e70 <exit@plt>

000000000040103a <initialize_target>:
  40103a:	55                   	push   %rbp
  40103b:	53                   	push   %rbx
  40103c:	48 81 ec 18 21 00 00 	sub    $0x2118,%rsp
  401043:	89 f5                	mov    %esi,%ebp
  401045:	64 48 8b 04 25 28 00 	mov    %fs:0x28,%rax
  40104c:	00 00 
  40104e:	48 89 84 24 08 21 00 	mov    %rax,0x2108(%rsp)
  401055:	00 
  401056:	31 c0                	xor    %eax,%eax
  401058:	89 3d ba 34 20 00    	mov    %edi,0x2034ba(%rip)        # 604518 <check_level>
  40105e:	8b 3d 04 31 20 00    	mov    0x203104(%rip),%edi        # 604168 <target_id>
  401064:	e8 9a 1d 00 00       	callq  402e03 <gencookie>
  401069:	89 05 b5 34 20 00    	mov    %eax,0x2034b5(%rip)        # 604524 <cookie>
  40106f:	89 c7                	mov    %eax,%edi
  401071:	e8 8d 1d 00 00       	callq  402e03 <gencookie>
  401076:	89 05 a4 34 20 00    	mov    %eax,0x2034a4(%rip)        # 604520 <authkey>
  40107c:	8b 05 e6 30 20 00    	mov    0x2030e6(%rip),%eax        # 604168 <target_id>
  401082:	8d 78 01             	lea    0x1(%rax),%edi
  401085:	e8 26 fc ff ff       	callq  400cb0 <srandom@plt>
  40108a:	e8 51 fd ff ff       	callq  400de0 <random@plt>
  40108f:	89 c7                	mov    %eax,%edi
  401091:	e8 03 03 00 00       	callq  401399 <scramble>
  401096:	89 c3                	mov    %eax,%ebx
  401098:	85 ed                	test   %ebp,%ebp
  40109a:	74 18                	je     4010b4 <initialize_target+0x7a>
  40109c:	bf 00 00 00 00       	mov    $0x0,%edi
  4010a1:	e8 2a fd ff ff       	callq  400dd0 <time@plt>
  4010a6:	89 c7                	mov    %eax,%edi
  4010a8:	e8 03 fc ff ff       	callq  400cb0 <srandom@plt>
  4010ad:	e8 2e fd ff ff       	callq  400de0 <random@plt>
  4010b2:	eb 05                	jmp    4010b9 <initialize_target+0x7f>
  4010b4:	b8 00 00 00 00       	mov    $0x0,%eax
  4010b9:	01 c3                	add    %eax,%ebx
  4010bb:	0f b7 db             	movzwl %bx,%ebx
  4010be:	8d 04 dd 00 01 00 00 	lea    0x100(,%rbx,8),%eax
  4010c5:	89 c0                	mov    %eax,%eax
  4010c7:	48 89 05 d2 33 20 00 	mov    %rax,0x2033d2(%rip)        # 6044a0 <buf_offset>
  4010ce:	c6 05 73 40 20 00 63 	movb   $0x63,0x204073(%rip)        # 605148 <target_prefix>
  4010d5:	83 3d cc 33 20 00 00 	cmpl   $0x0,0x2033cc(%rip)        # 6044a8 <notify>
  4010dc:	0f 84 bb 00 00 00    	je     40119d <initialize_target+0x163>
  4010e2:	83 3d 3f 34 20 00 00 	cmpl   $0x0,0x20343f(%rip)        # 604528 <is_checker>
  4010e9:	0f 85 ae 00 00 00    	jne    40119d <initialize_target+0x163>
  4010ef:	be 00 01 00 00       	mov    $0x100,%esi
  4010f4:	48 89 e7             	mov    %rsp,%rdi
  4010f7:	e8 64 fd ff ff       	callq  400e60 <gethostname@plt>
  4010fc:	85 c0                	test   %eax,%eax
  4010fe:	74 25                	je     401125 <initialize_target+0xeb>
  401100:	bf 98 2f 40 00       	mov    $0x402f98,%edi
  401105:	e8 d6 fb ff ff       	callq  400ce0 <puts@plt>
  40110a:	bf 08 00 00 00       	mov    $0x8,%edi
  40110f:	e8 5c fd ff ff       	callq  400e70 <exit@plt>
  401114:	48 89 e6             	mov    %rsp,%rsi
  401117:	e8 74 fb ff ff       	callq  400c90 <strcasecmp@plt>
  40111c:	85 c0                	test   %eax,%eax
  40111e:	74 21                	je     401141 <initialize_target+0x107>
  401120:	83 c3 01             	add    $0x1,%ebx
  401123:	eb 05                	jmp    40112a <initialize_target+0xf0>
  401125:	bb 00 00 00 00       	mov    $0x0,%ebx
  40112a:	48 63 c3             	movslq %ebx,%rax
  40112d:	48 8b 3c c5 80 41 60 	mov    0x604180(,%rax,8),%rdi
  401134:	00 
  401135:	48 85 ff             	test   %rdi,%rdi
  401138:	75 da                	jne    401114 <initialize_target+0xda>
  40113a:	b8 00 00 00 00       	mov    $0x0,%eax
  40113f:	eb 05                	jmp    401146 <initialize_target+0x10c>
  401141:	b8 01 00 00 00       	mov    $0x1,%eax
  401146:	85 c0                	test   %eax,%eax
  401148:	75 1c                	jne    401166 <initialize_target+0x12c>
  40114a:	48 89 e2             	mov    %rsp,%rdx
  40114d:	be d0 2f 40 00       	mov    $0x402fd0,%esi
  401152:	bf 01 00 00 00       	mov    $0x1,%edi
  401157:	e8 c4 fc ff ff       	callq  400e20 <__printf_chk@plt>
  40115c:	bf 08 00 00 00       	mov    $0x8,%edi
  401161:	e8 0a fd ff ff       	callq  400e70 <exit@plt>
  401166:	48 8d bc 24 00 01 00 	lea    0x100(%rsp),%rdi
  40116d:	00 
  40116e:	e8 f8 19 00 00       	callq  402b6b <init_driver>
  401173:	85 c0                	test   %eax,%eax
  401175:	79 26                	jns    40119d <initialize_target+0x163>
  401177:	48 8d 94 24 00 01 00 	lea    0x100(%rsp),%rdx
  40117e:	00 
  40117f:	be 10 30 40 00       	mov    $0x403010,%esi
  401184:	bf 01 00 00 00       	mov    $0x1,%edi
  401189:	b8 00 00 00 00       	mov    $0x0,%eax
  40118e:	e8 8d fc ff ff       	callq  400e20 <__printf_chk@plt>
  401193:	bf 08 00 00 00       	mov    $0x8,%edi
  401198:	e8 d3 fc ff ff       	callq  400e70 <exit@plt>
  40119d:	48 8b 84 24 08 21 00 	mov    0x2108(%rsp),%rax
  4011a4:	00 
  4011a5:	64 48 33 04 25 28 00 	xor    %fs:0x28,%rax
  4011ac:	00 00 
  4011ae:	74 05                	je     4011b5 <initialize_target+0x17b>
  4011b0:	e8 4b fb ff ff       	callq  400d00 <__stack_chk_fail@plt>
  4011b5:	48 81 c4 18 21 00 00 	add    $0x2118,%rsp
  4011bc:	5b                   	pop    %rbx
  4011bd:	5d                   	pop    %rbp
  4011be:	c3                   	retq   

00000000004011bf <main>:
  4011bf:	41 56                	push   %r14
  4011c1:	41 55                	push   %r13
  4011c3:	41 54                	push   %r12
  4011c5:	55                   	push   %rbp
  4011c6:	53                   	push   %rbx
  4011c7:	41 89 fc             	mov    %edi,%r12d
  4011ca:	48 89 f3             	mov    %rsi,%rbx
  4011cd:	be de 1e 40 00       	mov    $0x401ede,%esi
  4011d2:	bf 0b 00 00 00       	mov    $0xb,%edi
  4011d7:	e8 94 fb ff ff       	callq  400d70 <signal@plt>
  4011dc:	be 90 1e 40 00       	mov    $0x401e90,%esi
  4011e1:	bf 07 00 00 00       	mov    $0x7,%edi
  4011e6:	e8 85 fb ff ff       	callq  400d70 <signal@plt>
  4011eb:	be 2c 1f 40 00       	mov    $0x401f2c,%esi
  4011f0:	bf 04 00 00 00       	mov    $0x4,%edi
  4011f5:	e8 76 fb ff ff       	callq  400d70 <signal@plt>
  4011fa:	83 3d 27 33 20 00 00 	cmpl   $0x0,0x203327(%rip)        # 604528 <is_checker>
  401201:	74 20                	je     401223 <main+0x64>
  401203:	be 7a 1f 40 00       	mov    $0x401f7a,%esi
  401208:	bf 0e 00 00 00       	mov    $0xe,%edi
  40120d:	e8 5e fb ff ff       	callq  400d70 <signal@plt>
  401212:	bf 05 00 00 00       	mov    $0x5,%edi
  401217:	e8 14 fb ff ff       	callq  400d30 <alarm@plt>
  40121c:	bd da 30 40 00       	mov    $0x4030da,%ebp
  401221:	eb 05                	jmp    401228 <main+0x69>
  401223:	bd d5 30 40 00       	mov    $0x4030d5,%ebp
  401228:	48 8b 05 91 32 20 00 	mov    0x203291(%rip),%rax        # 6044c0 <stdin@@GLIBC_2.2.5>
  40122f:	48 89 05 da 32 20 00 	mov    %rax,0x2032da(%rip)        # 604510 <infile>
  401236:	41 bd 00 00 00 00    	mov    $0x0,%r13d
  40123c:	41 be 00 00 00 00    	mov    $0x0,%r14d
  401242:	e9 c6 00 00 00       	jmpq   40130d <main+0x14e>
  401247:	83 e8 61             	sub    $0x61,%eax
  40124a:	3c 10                	cmp    $0x10,%al
  40124c:	0f 87 9c 00 00 00    	ja     4012ee <main+0x12f>
  401252:	0f b6 c0             	movzbl %al,%eax
  401255:	ff 24 c5 20 31 40 00 	jmpq   *0x403120(,%rax,8)
  40125c:	48 8b 3b             	mov    (%rbx),%rdi
  40125f:	e8 4c fd ff ff       	callq  400fb0 <usage>
  401264:	be 8d 33 40 00       	mov    $0x40338d,%esi
  401269:	48 8b 3d 70 32 20 00 	mov    0x203270(%rip),%rdi        # 6044e0 <optarg@@GLIBC_2.2.5>
  401270:	e8 bb fb ff ff       	callq  400e30 <fopen@plt>
  401275:	48 89 05 94 32 20 00 	mov    %rax,0x203294(%rip)        # 604510 <infile>
  40127c:	48 85 c0             	test   %rax,%rax
  40127f:	0f 85 88 00 00 00    	jne    40130d <main+0x14e>
  401285:	48 8b 0d 54 32 20 00 	mov    0x203254(%rip),%rcx        # 6044e0 <optarg@@GLIBC_2.2.5>
  40128c:	ba e2 30 40 00       	mov    $0x4030e2,%edx
  401291:	be 01 00 00 00       	mov    $0x1,%esi
  401296:	48 8b 3d 4b 32 20 00 	mov    0x20324b(%rip),%rdi        # 6044e8 <stderr@@GLIBC_2.2.5>
  40129d:	e8 ee fb ff ff       	callq  400e90 <__fprintf_chk@plt>
  4012a2:	b8 01 00 00 00       	mov    $0x1,%eax
  4012a7:	e9 e4 00 00 00       	jmpq   401390 <main+0x1d1>
  4012ac:	ba 10 00 00 00       	mov    $0x10,%edx
  4012b1:	be 00 00 00 00       	mov    $0x0,%esi
  4012b6:	48 8b 3d 23 32 20 00 	mov    0x203223(%rip),%rdi        # 6044e0 <optarg@@GLIBC_2.2.5>
  4012bd:	e8 8e fb ff ff       	callq  400e50 <strtoul@plt>
  4012c2:	41 89 c6             	mov    %eax,%r14d
  4012c5:	eb 46                	jmp    40130d <main+0x14e>
  4012c7:	ba 0a 00 00 00       	mov    $0xa,%edx
  4012cc:	be 00 00 00 00       	mov    $0x0,%esi
  4012d1:	48 8b 3d 08 32 20 00 	mov    0x203208(%rip),%rdi        # 6044e0 <optarg@@GLIBC_2.2.5>
  4012d8:	e8 d3 fa ff ff       	callq  400db0 <strtol@plt>
  4012dd:	41 89 c5             	mov    %eax,%r13d
  4012e0:	eb 2b                	jmp    40130d <main+0x14e>
  4012e2:	c7 05 bc 31 20 00 00 	movl   $0x0,0x2031bc(%rip)        # 6044a8 <notify>
  4012e9:	00 00 00 
  4012ec:	eb 1f                	jmp    40130d <main+0x14e>
  4012ee:	0f be d2             	movsbl %dl,%edx
  4012f1:	be ff 30 40 00       	mov    $0x4030ff,%esi
  4012f6:	bf 01 00 00 00       	mov    $0x1,%edi
  4012fb:	b8 00 00 00 00       	mov    $0x0,%eax
  401300:	e8 1b fb ff ff       	callq  400e20 <__printf_chk@plt>
  401305:	48 8b 3b             	mov    (%rbx),%rdi
  401308:	e8 a3 fc ff ff       	callq  400fb0 <usage>
  40130d:	48 89 ea             	mov    %rbp,%rdx
  401310:	48 89 de             	mov    %rbx,%rsi
  401313:	44 89 e7             	mov    %r12d,%edi
  401316:	e8 25 fb ff ff       	callq  400e40 <getopt@plt>
  40131b:	89 c2                	mov    %eax,%edx
  40131d:	3c ff                	cmp    $0xff,%al
  40131f:	0f 85 22 ff ff ff    	jne    401247 <main+0x88>
  401325:	be 00 00 00 00       	mov    $0x0,%esi
  40132a:	44 89 ef             	mov    %r13d,%edi
  40132d:	e8 08 fd ff ff       	callq  40103a <initialize_target>
  401332:	83 3d ef 31 20 00 00 	cmpl   $0x0,0x2031ef(%rip)        # 604528 <is_checker>
  401339:	74 2a                	je     401365 <main+0x1a6>
  40133b:	44 3b 35 de 31 20 00 	cmp    0x2031de(%rip),%r14d        # 604520 <authkey>
  401342:	74 21                	je     401365 <main+0x1a6>
  401344:	44 89 f2             	mov    %r14d,%edx
  401347:	be 38 30 40 00       	mov    $0x403038,%esi
  40134c:	bf 01 00 00 00       	mov    $0x1,%edi
  401351:	b8 00 00 00 00       	mov    $0x0,%eax
  401356:	e8 c5 fa ff ff       	callq  400e20 <__printf_chk@plt>
  40135b:	b8 00 00 00 00       	mov    $0x0,%eax
  401360:	e8 b6 07 00 00       	callq  401b1b <check_fail>
  401365:	8b 15 b9 31 20 00    	mov    0x2031b9(%rip),%edx        # 604524 <cookie>
  40136b:	be 12 31 40 00       	mov    $0x403112,%esi
  401370:	bf 01 00 00 00       	mov    $0x1,%edi
  401375:	b8 00 00 00 00       	mov    $0x0,%eax
  40137a:	e8 a1 fa ff ff       	callq  400e20 <__printf_chk@plt>
  40137f:	48 8b 3d 1a 31 20 00 	mov    0x20311a(%rip),%rdi        # 6044a0 <buf_offset>
  401386:	e8 ef 0c 00 00       	callq  40207a <stable_launch>
  40138b:	b8 00 00 00 00       	mov    $0x0,%eax
  401390:	5b                   	pop    %rbx
  401391:	5d                   	pop    %rbp
  401392:	41 5c                	pop    %r12
  401394:	41 5d                	pop    %r13
  401396:	41 5e                	pop    %r14
  401398:	c3                   	retq   

0000000000401399 <scramble>:
  401399:	b8 00 00 00 00       	mov    $0x0,%eax
  40139e:	eb 11                	jmp    4013b1 <scramble+0x18>
  4013a0:	69 c8 c4 7c 00 00    	imul   $0x7cc4,%eax,%ecx
  4013a6:	01 f9                	add    %edi,%ecx
  4013a8:	89 c2                	mov    %eax,%edx
  4013aa:	89 4c 94 c8          	mov    %ecx,-0x38(%rsp,%rdx,4)
  4013ae:	83 c0 01             	add    $0x1,%eax
  4013b1:	83 f8 09             	cmp    $0x9,%eax
  4013b4:	76 ea                	jbe    4013a0 <scramble+0x7>
  4013b6:	8b 44 24 d4          	mov    -0x2c(%rsp),%eax
  4013ba:	69 c0 77 3e 00 00    	imul   $0x3e77,%eax,%eax
  4013c0:	89 44 24 d4          	mov    %eax,-0x2c(%rsp)
  4013c4:	8b 44 24 cc          	mov    -0x34(%rsp),%eax
  4013c8:	69 c0 02 a5 00 00    	imul   $0xa502,%eax,%eax
  4013ce:	89 44 24 cc          	mov    %eax,-0x34(%rsp)
  4013d2:	8b 44 24 d0          	mov    -0x30(%rsp),%eax
  4013d6:	69 c0 52 ec 00 00    	imul   $0xec52,%eax,%eax
  4013dc:	89 44 24 d0          	mov    %eax,-0x30(%rsp)
  4013e0:	8b 44 24 c8          	mov    -0x38(%rsp),%eax
  4013e4:	69 c0 97 39 00 00    	imul   $0x3997,%eax,%eax
  4013ea:	89 44 24 c8          	mov    %eax,-0x38(%rsp)
  4013ee:	8b 44 24 e8          	mov    -0x18(%rsp),%eax
  4013f2:	69 c0 81 7d 00 00    	imul   $0x7d81,%eax,%eax
  4013f8:	89 44 24 e8          	mov    %eax,-0x18(%rsp)
  4013fc:	8b 44 24 ec          	mov    -0x14(%rsp),%eax
  401400:	01 c0                	add    %eax,%eax
  401402:	89 44 24 ec          	mov    %eax,-0x14(%rsp)
  401406:	8b 44 24 d4          	mov    -0x2c(%rsp),%eax
  40140a:	69 c0 e5 ba 00 00    	imul   $0xbae5,%eax,%eax
  401410:	89 44 24 d4          	mov    %eax,-0x2c(%rsp)
  401414:	8b 44 24 e4          	mov    -0x1c(%rsp),%eax
  401418:	69 c0 9b c2 00 00    	imul   $0xc29b,%eax,%eax
  40141e:	89 44 24 e4          	mov    %eax,-0x1c(%rsp)
  401422:	8b 44 24 e8          	mov    -0x18(%rsp),%eax
  401426:	69 c0 ca 95 00 00    	imul   $0x95ca,%eax,%eax
  40142c:	89 44 24 e8          	mov    %eax,-0x18(%rsp)
  401430:	8b 44 24 d8          	mov    -0x28(%rsp),%eax
  401434:	69 c0 f9 b1 00 00    	imul   $0xb1f9,%eax,%eax
  40143a:	89 44 24 d8          	mov    %eax,-0x28(%rsp)
  40143e:	8b 44 24 cc          	mov    -0x34(%rsp),%eax
  401442:	69 c0 22 b0 00 00    	imul   $0xb022,%eax,%eax
  401448:	89 44 24 cc          	mov    %eax,-0x34(%rsp)
  40144c:	8b 44 24 c8          	mov    -0x38(%rsp),%eax
  401450:	69 c0 db 0d 00 00    	imul   $0xddb,%eax,%eax
  401456:	89 44 24 c8          	mov    %eax,-0x38(%rsp)
  40145a:	8b 44 24 cc          	mov    -0x34(%rsp),%eax
  40145e:	69 c0 09 ce 00 00    	imul   $0xce09,%eax,%eax
  401464:	89 44 24 cc          	mov    %eax,-0x34(%rsp)
  401468:	8b 44 24 c8          	mov    -0x38(%rsp),%eax
  40146c:	69 c0 dc 21 00 00    	imul   $0x21dc,%eax,%eax
  401472:	89 44 24 c8          	mov    %eax,-0x38(%rsp)
  401476:	8b 44 24 ec          	mov    -0x14(%rsp),%eax
  40147a:	69 c0 03 0f 00 00    	imul   $0xf03,%eax,%eax
  401480:	89 44 24 ec          	mov    %eax,-0x14(%rsp)
  401484:	8b 44 24 e8          	mov    -0x18(%rsp),%eax
  401488:	69 c0 be bd 00 00    	imul   $0xbdbe,%eax,%eax
  40148e:	89 44 24 e8          	mov    %eax,-0x18(%rsp)
  401492:	8b 44 24 ec          	mov    -0x14(%rsp),%eax
  401496:	69 c0 48 a9 00 00    	imul   $0xa948,%eax,%eax
  40149c:	89 44 24 ec          	mov    %eax,-0x14(%rsp)
  4014a0:	8b 44 24 dc          	mov    -0x24(%rsp),%eax
  4014a4:	69 c0 49 1a 00 00    	imul   $0x1a49,%eax,%eax
  4014aa:	89 44 24 dc          	mov    %eax,-0x24(%rsp)
  4014ae:	8b 44 24 ec          	mov    -0x14(%rsp),%eax
  4014b2:	69 c0 ab bb 00 00    	imul   $0xbbab,%eax,%eax
  4014b8:	89 44 24 ec          	mov    %eax,-0x14(%rsp)
  4014bc:	8b 44 24 e0          	mov    -0x20(%rsp),%eax
  4014c0:	69 c0 e9 32 00 00    	imul   $0x32e9,%eax,%eax
  4014c6:	89 44 24 e0          	mov    %eax,-0x20(%rsp)
  4014ca:	8b 44 24 ec          	mov    -0x14(%rsp),%eax
  4014ce:	69 c0 e3 b6 00 00    	imul   $0xb6e3,%eax,%eax
  4014d4:	89 44 24 ec          	mov    %eax,-0x14(%rsp)
  4014d8:	8b 44 24 c8          	mov    -0x38(%rsp),%eax
  4014dc:	69 c0 7c db 00 00    	imul   $0xdb7c,%eax,%eax
  4014e2:	89 44 24 c8          	mov    %eax,-0x38(%rsp)
  4014e6:	8b 44 24 dc          	mov    -0x24(%rsp),%eax
  4014ea:	69 c0 05 16 00 00    	imul   $0x1605,%eax,%eax
  4014f0:	89 44 24 dc          	mov    %eax,-0x24(%rsp)
  4014f4:	8b 44 24 ec          	mov    -0x14(%rsp),%eax
  4014f8:	69 c0 27 d3 00 00    	imul   $0xd327,%eax,%eax
  4014fe:	89 44 24 ec          	mov    %eax,-0x14(%rsp)
  401502:	8b 44 24 dc          	mov    -0x24(%rsp),%eax
  401506:	69 c0 67 b3 00 00    	imul   $0xb367,%eax,%eax
  40150c:	89 44 24 dc          	mov    %eax,-0x24(%rsp)
  401510:	8b 44 24 dc          	mov    -0x24(%rsp),%eax
  401514:	69 c0 79 2c 00 00    	imul   $0x2c79,%eax,%eax
  40151a:	89 44 24 dc          	mov    %eax,-0x24(%rsp)
  40151e:	8b 44 24 e0          	mov    -0x20(%rsp),%eax
  401522:	69 c0 da e8 00 00    	imul   $0xe8da,%eax,%eax
  401528:	89 44 24 e0          	mov    %eax,-0x20(%rsp)
  40152c:	8b 44 24 ec          	mov    -0x14(%rsp),%eax
  401530:	69 c0 3b ac 00 00    	imul   $0xac3b,%eax,%eax
  401536:	89 44 24 ec          	mov    %eax,-0x14(%rsp)
  40153a:	8b 44 24 e8          	mov    -0x18(%rsp),%eax
  40153e:	69 c0 fa 2b 00 00    	imul   $0x2bfa,%eax,%eax
  401544:	89 44 24 e8          	mov    %eax,-0x18(%rsp)
  401548:	8b 44 24 d4          	mov    -0x2c(%rsp),%eax
  40154c:	69 c0 dd f7 00 00    	imul   $0xf7dd,%eax,%eax
  401552:	89 44 24 d4          	mov    %eax,-0x2c(%rsp)
  401556:	8b 44 24 e8          	mov    -0x18(%rsp),%eax
  40155a:	69 c0 93 4f 00 00    	imul   $0x4f93,%eax,%eax
  401560:	89 44 24 e8          	mov    %eax,-0x18(%rsp)
  401564:	8b 44 24 c8          	mov    -0x38(%rsp),%eax
  401568:	69 c0 77 88 00 00    	imul   $0x8877,%eax,%eax
  40156e:	89 44 24 c8          	mov    %eax,-0x38(%rsp)
  401572:	8b 44 24 d4          	mov    -0x2c(%rsp),%eax
  401576:	69 c0 5d 18 00 00    	imul   $0x185d,%eax,%eax
  40157c:	89 44 24 d4          	mov    %eax,-0x2c(%rsp)
  401580:	8b 44 24 d8          	mov    -0x28(%rsp),%eax
  401584:	69 c0 77 8e 00 00    	imul   $0x8e77,%eax,%eax
  40158a:	89 44 24 d8          	mov    %eax,-0x28(%rsp)
  40158e:	8b 44 24 d0          	mov    -0x30(%rsp),%eax
  401592:	69 c0 a2 f6 00 00    	imul   $0xf6a2,%eax,%eax
  401598:	89 44 24 d0          	mov    %eax,-0x30(%rsp)
  40159c:	8b 44 24 ec          	mov    -0x14(%rsp),%eax
  4015a0:	69 c0 35 0d 00 00    	imul   $0xd35,%eax,%eax
  4015a6:	89 44 24 ec          	mov    %eax,-0x14(%rsp)
  4015aa:	8b 44 24 ec          	mov    -0x14(%rsp),%eax
  4015ae:	69 c0 4b f4 00 00    	imul   $0xf44b,%eax,%eax
  4015b4:	89 44 24 ec          	mov    %eax,-0x14(%rsp)
  4015b8:	8b 44 24 e0          	mov    -0x20(%rsp),%eax
  4015bc:	69 c0 4e 1f 00 00    	imul   $0x1f4e,%eax,%eax
  4015c2:	89 44 24 e0          	mov    %eax,-0x20(%rsp)
  4015c6:	8b 44 24 ec          	mov    -0x14(%rsp),%eax
  4015ca:	69 c0 c8 86 00 00    	imul   $0x86c8,%eax,%eax
  4015d0:	89 44 24 ec          	mov    %eax,-0x14(%rsp)
  4015d4:	8b 44 24 ec          	mov    -0x14(%rsp),%eax
  4015d8:	69 c0 20 b6 00 00    	imul   $0xb620,%eax,%eax
  4015de:	89 44 24 ec          	mov    %eax,-0x14(%rsp)
  4015e2:	8b 44 24 d4          	mov    -0x2c(%rsp),%eax
  4015e6:	69 c0 96 77 00 00    	imul   $0x7796,%eax,%eax
  4015ec:	89 44 24 d4          	mov    %eax,-0x2c(%rsp)
  4015f0:	8b 44 24 d4          	mov    -0x2c(%rsp),%eax
  4015f4:	69 c0 b8 9d 00 00    	imul   $0x9db8,%eax,%eax
  4015fa:	89 44 24 d4          	mov    %eax,-0x2c(%rsp)
  4015fe:	8b 44 24 d4          	mov    -0x2c(%rsp),%eax
  401602:	69 c0 ee 1c 00 00    	imul   $0x1cee,%eax,%eax
  401608:	89 44 24 d4          	mov    %eax,-0x2c(%rsp)
  40160c:	8b 44 24 d8          	mov    -0x28(%rsp),%eax
  401610:	69 c0 54 17 00 00    	imul   $0x1754,%eax,%eax
  401616:	89 44 24 d8          	mov    %eax,-0x28(%rsp)
  40161a:	8b 44 24 d8          	mov    -0x28(%rsp),%eax
  40161e:	69 c0 0b 18 00 00    	imul   $0x180b,%eax,%eax
  401624:	89 44 24 d8          	mov    %eax,-0x28(%rsp)
  401628:	8b 44 24 ec          	mov    -0x14(%rsp),%eax
  40162c:	69 c0 e5 83 00 00    	imul   $0x83e5,%eax,%eax
  401632:	89 44 24 ec          	mov    %eax,-0x14(%rsp)
  401636:	8b 44 24 c8          	mov    -0x38(%rsp),%eax
  40163a:	69 c0 ce c4 00 00    	imul   $0xc4ce,%eax,%eax
  401640:	89 44 24 c8          	mov    %eax,-0x38(%rsp)
  401644:	8b 44 24 dc          	mov    -0x24(%rsp),%eax
  401648:	69 c0 7b 60 00 00    	imul   $0x607b,%eax,%eax
  40164e:	89 44 24 dc          	mov    %eax,-0x24(%rsp)
  401652:	8b 44 24 e8          	mov    -0x18(%rsp),%eax
  401656:	69 c0 1d af 00 00    	imul   $0xaf1d,%eax,%eax
  40165c:	89 44 24 e8          	mov    %eax,-0x18(%rsp)
  401660:	8b 44 24 e4          	mov    -0x1c(%rsp),%eax
  401664:	69 c0 33 b1 00 00    	imul   $0xb133,%eax,%eax
  40166a:	89 44 24 e4          	mov    %eax,-0x1c(%rsp)
  40166e:	8b 44 24 d0          	mov    -0x30(%rsp),%eax
  401672:	69 c0 52 b0 00 00    	imul   $0xb052,%eax,%eax
  401678:	89 44 24 d0          	mov    %eax,-0x30(%rsp)
  40167c:	8b 44 24 dc          	mov    -0x24(%rsp),%eax
  401680:	69 c0 45 53 00 00    	imul   $0x5345,%eax,%eax
  401686:	89 44 24 dc          	mov    %eax,-0x24(%rsp)
  40168a:	8b 44 24 cc          	mov    -0x34(%rsp),%eax
  40168e:	69 c0 19 a7 00 00    	imul   $0xa719,%eax,%eax
  401694:	89 44 24 cc          	mov    %eax,-0x34(%rsp)
  401698:	8b 44 24 ec          	mov    -0x14(%rsp),%eax
  40169c:	69 c0 ee ae 00 00    	imul   $0xaeee,%eax,%eax
  4016a2:	89 44 24 ec          	mov    %eax,-0x14(%rsp)
  4016a6:	8b 44 24 d0          	mov    -0x30(%rsp),%eax
  4016aa:	69 c0 08 65 00 00    	imul   $0x6508,%eax,%eax
  4016b0:	89 44 24 d0          	mov    %eax,-0x30(%rsp)
  4016b4:	8b 44 24 ec          	mov    -0x14(%rsp),%eax
  4016b8:	69 c0 10 68 00 00    	imul   $0x6810,%eax,%eax
  4016be:	89 44 24 ec          	mov    %eax,-0x14(%rsp)
  4016c2:	8b 44 24 d8          	mov    -0x28(%rsp),%eax
  4016c6:	69 c0 a7 47 00 00    	imul   $0x47a7,%eax,%eax
  4016cc:	89 44 24 d8          	mov    %eax,-0x28(%rsp)
  4016d0:	8b 44 24 ec          	mov    -0x14(%rsp),%eax
  4016d4:	69 c0 10 3d 00 00    	imul   $0x3d10,%eax,%eax
  4016da:	89 44 24 ec          	mov    %eax,-0x14(%rsp)
  4016de:	8b 44 24 d8          	mov    -0x28(%rsp),%eax
  4016e2:	69 c0 bc 4f 00 00    	imul   $0x4fbc,%eax,%eax
  4016e8:	89 44 24 d8          	mov    %eax,-0x28(%rsp)
  4016ec:	8b 44 24 cc          	mov    -0x34(%rsp),%eax
  4016f0:	69 c0 7d ad 00 00    	imul   $0xad7d,%eax,%eax
  4016f6:	89 44 24 cc          	mov    %eax,-0x34(%rsp)
  4016fa:	8b 44 24 d0          	mov    -0x30(%rsp),%eax
  4016fe:	69 c0 96 63 00 00    	imul   $0x6396,%eax,%eax
  401704:	89 44 24 d0          	mov    %eax,-0x30(%rsp)
  401708:	8b 44 24 d8          	mov    -0x28(%rsp),%eax
  40170c:	69 c0 66 cf 00 00    	imul   $0xcf66,%eax,%eax
  401712:	89 44 24 d8          	mov    %eax,-0x28(%rsp)
  401716:	8b 44 24 d4          	mov    -0x2c(%rsp),%eax
  40171a:	69 c0 bf 3d 00 00    	imul   $0x3dbf,%eax,%eax
  401720:	89 44 24 d4          	mov    %eax,-0x2c(%rsp)
  401724:	8b 44 24 c8          	mov    -0x38(%rsp),%eax
  401728:	69 c0 8f 05 00 00    	imul   $0x58f,%eax,%eax
  40172e:	89 44 24 c8          	mov    %eax,-0x38(%rsp)
  401732:	8b 44 24 cc          	mov    -0x34(%rsp),%eax
  401736:	69 c0 d3 1e 00 00    	imul   $0x1ed3,%eax,%eax
  40173c:	89 44 24 cc          	mov    %eax,-0x34(%rsp)
  401740:	8b 44 24 dc          	mov    -0x24(%rsp),%eax
  401744:	69 c0 9c 92 00 00    	imul   $0x929c,%eax,%eax
  40174a:	89 44 24 dc          	mov    %eax,-0x24(%rsp)
  40174e:	8b 44 24 cc          	mov    -0x34(%rsp),%eax
  401752:	69 c0 2b 75 00 00    	imul   $0x752b,%eax,%eax
  401758:	89 44 24 cc          	mov    %eax,-0x34(%rsp)
  40175c:	8b 44 24 ec          	mov    -0x14(%rsp),%eax
  401760:	69 c0 c3 73 00 00    	imul   $0x73c3,%eax,%eax
  401766:	89 44 24 ec          	mov    %eax,-0x14(%rsp)
  40176a:	8b 44 24 dc          	mov    -0x24(%rsp),%eax
  40176e:	69 c0 74 58 00 00    	imul   $0x5874,%eax,%eax
  401774:	89 44 24 dc          	mov    %eax,-0x24(%rsp)
  401778:	8b 44 24 e0          	mov    -0x20(%rsp),%eax
  40177c:	69 c0 26 4a 00 00    	imul   $0x4a26,%eax,%eax
  401782:	89 44 24 e0          	mov    %eax,-0x20(%rsp)
  401786:	8b 44 24 ec          	mov    -0x14(%rsp),%eax
  40178a:	69 c0 bf 87 00 00    	imul   $0x87bf,%eax,%eax
  401790:	89 44 24 ec          	mov    %eax,-0x14(%rsp)
  401794:	8b 44 24 d8          	mov    -0x28(%rsp),%eax
  401798:	69 c0 1b 9a 00 00    	imul   $0x9a1b,%eax,%eax
  40179e:	89 44 24 d8          	mov    %eax,-0x28(%rsp)
  4017a2:	8b 44 24 e4          	mov    -0x1c(%rsp),%eax
  4017a6:	69 c0 ff b7 00 00    	imul   $0xb7ff,%eax,%eax
  4017ac:	89 44 24 e4          	mov    %eax,-0x1c(%rsp)
  4017b0:	8b 44 24 dc          	mov    -0x24(%rsp),%eax
  4017b4:	69 c0 fc 33 00 00    	imul   $0x33fc,%eax,%eax
  4017ba:	89 44 24 dc          	mov    %eax,-0x24(%rsp)
  4017be:	8b 44 24 cc          	mov    -0x34(%rsp),%eax
  4017c2:	69 c0 90 2b 00 00    	imul   $0x2b90,%eax,%eax
  4017c8:	89 44 24 cc          	mov    %eax,-0x34(%rsp)
  4017cc:	8b 44 24 d8          	mov    -0x28(%rsp),%eax
  4017d0:	69 c0 83 6f 00 00    	imul   $0x6f83,%eax,%eax
  4017d6:	89 44 24 d8          	mov    %eax,-0x28(%rsp)
  4017da:	8b 44 24 cc          	mov    -0x34(%rsp),%eax
  4017de:	69 c0 dc 12 00 00    	imul   $0x12dc,%eax,%eax
  4017e4:	89 44 24 cc          	mov    %eax,-0x34(%rsp)
  4017e8:	8b 44 24 d4          	mov    -0x2c(%rsp),%eax
  4017ec:	69 c0 8b b7 00 00    	imul   $0xb78b,%eax,%eax
  4017f2:	89 44 24 d4          	mov    %eax,-0x2c(%rsp)
  4017f6:	8b 44 24 d0          	mov    -0x30(%rsp),%eax
  4017fa:	69 c0 cb 6e 00 00    	imul   $0x6ecb,%eax,%eax
  401800:	89 44 24 d0          	mov    %eax,-0x30(%rsp)
  401804:	8b 44 24 c8          	mov    -0x38(%rsp),%eax
  401808:	69 c0 77 3d 00 00    	imul   $0x3d77,%eax,%eax
  40180e:	89 44 24 c8          	mov    %eax,-0x38(%rsp)
  401812:	8b 44 24 dc          	mov    -0x24(%rsp),%eax
  401816:	69 c0 dd 73 00 00    	imul   $0x73dd,%eax,%eax
  40181c:	89 44 24 dc          	mov    %eax,-0x24(%rsp)
  401820:	8b 44 24 cc          	mov    -0x34(%rsp),%eax
  401824:	69 c0 c4 5c 00 00    	imul   $0x5cc4,%eax,%eax
  40182a:	89 44 24 cc          	mov    %eax,-0x34(%rsp)
  40182e:	8b 44 24 ec          	mov    -0x14(%rsp),%eax
  401832:	69 c0 f4 b5 00 00    	imul   $0xb5f4,%eax,%eax
  401838:	89 44 24 ec          	mov    %eax,-0x14(%rsp)
  40183c:	8b 44 24 c8          	mov    -0x38(%rsp),%eax
  401840:	69 c0 4e 05 00 00    	imul   $0x54e,%eax,%eax
  401846:	89 44 24 c8          	mov    %eax,-0x38(%rsp)
  40184a:	8b 44 24 d0          	mov    -0x30(%rsp),%eax
  40184e:	69 c0 38 f3 00 00    	imul   $0xf338,%eax,%eax
  401854:	89 44 24 d0          	mov    %eax,-0x30(%rsp)
  401858:	8b 44 24 d4          	mov    -0x2c(%rsp),%eax
  40185c:	69 c0 e5 cb 00 00    	imul   $0xcbe5,%eax,%eax
  401862:	89 44 24 d4          	mov    %eax,-0x2c(%rsp)
  401866:	8b 44 24 d0          	mov    -0x30(%rsp),%eax
  40186a:	69 c0 ab 01 00 00    	imul   $0x1ab,%eax,%eax
  401870:	89 44 24 d0          	mov    %eax,-0x30(%rsp)
  401874:	8b 44 24 ec          	mov    -0x14(%rsp),%eax
  401878:	69 c0 5d 4a 00 00    	imul   $0x4a5d,%eax,%eax
  40187e:	89 44 24 ec          	mov    %eax,-0x14(%rsp)
  401882:	8b 44 24 dc          	mov    -0x24(%rsp),%eax
  401886:	69 c0 2c 3d 00 00    	imul   $0x3d2c,%eax,%eax
  40188c:	89 44 24 dc          	mov    %eax,-0x24(%rsp)
  401890:	8b 44 24 e0          	mov    -0x20(%rsp),%eax
  401894:	69 c0 66 c1 00 00    	imul   $0xc166,%eax,%eax
  40189a:	89 44 24 e0          	mov    %eax,-0x20(%rsp)
  40189e:	ba 00 00 00 00       	mov    $0x0,%edx
  4018a3:	b8 00 00 00 00       	mov    $0x0,%eax
  4018a8:	eb 0b                	jmp    4018b5 <scramble+0x51c>
  4018aa:	89 d1                	mov    %edx,%ecx
  4018ac:	8b 4c 8c c8          	mov    -0x38(%rsp,%rcx,4),%ecx
  4018b0:	01 c8                	add    %ecx,%eax
  4018b2:	83 c2 01             	add    $0x1,%edx
  4018b5:	83 fa 09             	cmp    $0x9,%edx
  4018b8:	76 f0                	jbe    4018aa <scramble+0x511>
  4018ba:	f3 c3                	repz retq 

00000000004018bc <getbuf>:
  4018bc:	48 83 ec 18          	sub    $0x18,%rsp
  4018c0:	48 89 e7             	mov    %rsp,%rdi
  4018c3:	e8 88 02 00 00       	callq  401b50 <Gets>
  4018c8:	b8 01 00 00 00       	mov    $0x1,%eax
  4018cd:	48 83 c4 18          	add    $0x18,%rsp
  4018d1:	c3                   	retq   

00000000004018d2 <touch1>:
  4018d2:	48 83 ec 08          	sub    $0x8,%rsp
  4018d6:	c7 05 3c 2c 20 00 01 	movl   $0x1,0x202c3c(%rip)        # 60451c <vlevel>
  4018dd:	00 00 00 
  4018e0:	bf e6 31 40 00       	mov    $0x4031e6,%edi
  4018e5:	e8 f6 f3 ff ff       	callq  400ce0 <puts@plt>
  4018ea:	bf 01 00 00 00       	mov    $0x1,%edi
  4018ef:	e8 b2 04 00 00       	callq  401da6 <validate>
  4018f4:	bf 00 00 00 00       	mov    $0x0,%edi
  4018f9:	e8 72 f5 ff ff       	callq  400e70 <exit@plt>

00000000004018fe <touch2>:
  4018fe:	48 83 ec 08          	sub    $0x8,%rsp
  401902:	89 fa                	mov    %edi,%edx
  401904:	c7 05 0e 2c 20 00 02 	movl   $0x2,0x202c0e(%rip)        # 60451c <vlevel>
  40190b:	00 00 00 
  40190e:	3b 3d 10 2c 20 00    	cmp    0x202c10(%rip),%edi        # 604524 <cookie>
  401914:	75 20                	jne    401936 <touch2+0x38>
  401916:	be 08 32 40 00       	mov    $0x403208,%esi
  40191b:	bf 01 00 00 00       	mov    $0x1,%edi
  401920:	b8 00 00 00 00       	mov    $0x0,%eax
  401925:	e8 f6 f4 ff ff       	callq  400e20 <__printf_chk@plt>
  40192a:	bf 02 00 00 00       	mov    $0x2,%edi
  40192f:	e8 72 04 00 00       	callq  401da6 <validate>
  401934:	eb 1e                	jmp    401954 <touch2+0x56>
  401936:	be 30 32 40 00       	mov    $0x403230,%esi
  40193b:	bf 01 00 00 00       	mov    $0x1,%edi
  401940:	b8 00 00 00 00       	mov    $0x0,%eax
  401945:	e8 d6 f4 ff ff       	callq  400e20 <__printf_chk@plt>
  40194a:	bf 02 00 00 00       	mov    $0x2,%edi
  40194f:	e8 14 05 00 00       	callq  401e68 <fail>
  401954:	bf 00 00 00 00       	mov    $0x0,%edi
  401959:	e8 12 f5 ff ff       	callq  400e70 <exit@plt>

000000000040195e <hexmatch>:
  40195e:	41 54                	push   %r12
  401960:	55                   	push   %rbp
  401961:	53                   	push   %rbx
  401962:	48 83 c4 80          	add    $0xffffffffffffff80,%rsp
  401966:	41 89 fc             	mov    %edi,%r12d
  401969:	48 89 f5             	mov    %rsi,%rbp
  40196c:	64 48 8b 04 25 28 00 	mov    %fs:0x28,%rax
  401973:	00 00 
  401975:	48 89 44 24 78       	mov    %rax,0x78(%rsp)
  40197a:	31 c0                	xor    %eax,%eax
  40197c:	e8 5f f4 ff ff       	callq  400de0 <random@plt>
  401981:	48 89 c1             	mov    %rax,%rcx
  401984:	48 ba 0b d7 a3 70 3d 	movabs $0xa3d70a3d70a3d70b,%rdx
  40198b:	0a d7 a3 
  40198e:	48 f7 ea             	imul   %rdx
  401991:	48 01 ca             	add    %rcx,%rdx
  401994:	48 c1 fa 06          	sar    $0x6,%rdx
  401998:	48 89 c8             	mov    %rcx,%rax
  40199b:	48 c1 f8 3f          	sar    $0x3f,%rax
  40199f:	48 29 c2             	sub    %rax,%rdx
  4019a2:	48 8d 04 92          	lea    (%rdx,%rdx,4),%rax
  4019a6:	48 8d 04 80          	lea    (%rax,%rax,4),%rax
  4019aa:	48 c1 e0 02          	shl    $0x2,%rax
  4019ae:	48 29 c1             	sub    %rax,%rcx
  4019b1:	48 8d 1c 0c          	lea    (%rsp,%rcx,1),%rbx
  4019b5:	45 89 e0             	mov    %r12d,%r8d
  4019b8:	b9 03 32 40 00       	mov    $0x403203,%ecx
  4019bd:	48 c7 c2 ff ff ff ff 	mov    $0xffffffffffffffff,%rdx
  4019c4:	be 01 00 00 00       	mov    $0x1,%esi
  4019c9:	48 89 df             	mov    %rbx,%rdi
  4019cc:	b8 00 00 00 00       	mov    $0x0,%eax
  4019d1:	e8 ca f4 ff ff       	callq  400ea0 <__sprintf_chk@plt>
  4019d6:	ba 09 00 00 00       	mov    $0x9,%edx
  4019db:	48 89 de             	mov    %rbx,%rsi
  4019de:	48 89 ef             	mov    %rbp,%rdi
  4019e1:	e8 da f2 ff ff       	callq  400cc0 <strncmp@plt>
  4019e6:	85 c0                	test   %eax,%eax
  4019e8:	0f 94 c0             	sete   %al
  4019eb:	0f b6 c0             	movzbl %al,%eax
  4019ee:	48 8b 74 24 78       	mov    0x78(%rsp),%rsi
  4019f3:	64 48 33 34 25 28 00 	xor    %fs:0x28,%rsi
  4019fa:	00 00 
  4019fc:	74 05                	je     401a03 <hexmatch+0xa5>
  4019fe:	e8 fd f2 ff ff       	callq  400d00 <__stack_chk_fail@plt>
  401a03:	48 83 ec 80          	sub    $0xffffffffffffff80,%rsp
  401a07:	5b                   	pop    %rbx
  401a08:	5d                   	pop    %rbp
  401a09:	41 5c                	pop    %r12
  401a0b:	c3                   	retq   

0000000000401a0c <touch3>:
  401a0c:	53                   	push   %rbx
  401a0d:	48 89 fb             	mov    %rdi,%rbx
  401a10:	c7 05 02 2b 20 00 03 	movl   $0x3,0x202b02(%rip)        # 60451c <vlevel>
  401a17:	00 00 00 
  401a1a:	48 89 fe             	mov    %rdi,%rsi
  401a1d:	8b 3d 01 2b 20 00    	mov    0x202b01(%rip),%edi        # 604524 <cookie>
  401a23:	e8 36 ff ff ff       	callq  40195e <hexmatch>
  401a28:	85 c0                	test   %eax,%eax
  401a2a:	74 23                	je     401a4f <touch3+0x43>
  401a2c:	48 89 da             	mov    %rbx,%rdx
  401a2f:	be 58 32 40 00       	mov    $0x403258,%esi
  401a34:	bf 01 00 00 00       	mov    $0x1,%edi
  401a39:	b8 00 00 00 00       	mov    $0x0,%eax
  401a3e:	e8 dd f3 ff ff       	callq  400e20 <__printf_chk@plt>
  401a43:	bf 03 00 00 00       	mov    $0x3,%edi
  401a48:	e8 59 03 00 00       	callq  401da6 <validate>
  401a4d:	eb 21                	jmp    401a70 <touch3+0x64>
  401a4f:	48 89 da             	mov    %rbx,%rdx
  401a52:	be 80 32 40 00       	mov    $0x403280,%esi
  401a57:	bf 01 00 00 00       	mov    $0x1,%edi
  401a5c:	b8 00 00 00 00       	mov    $0x0,%eax
  401a61:	e8 ba f3 ff ff       	callq  400e20 <__printf_chk@plt>
  401a66:	bf 03 00 00 00       	mov    $0x3,%edi
  401a6b:	e8 f8 03 00 00       	callq  401e68 <fail>
  401a70:	bf 00 00 00 00       	mov    $0x0,%edi
  401a75:	e8 f6 f3 ff ff       	callq  400e70 <exit@plt>

0000000000401a7a <test>:
  401a7a:	48 83 ec 08          	sub    $0x8,%rsp
  401a7e:	b8 00 00 00 00       	mov    $0x0,%eax
  401a83:	e8 34 fe ff ff       	callq  4018bc <getbuf>
  401a88:	89 c2                	mov    %eax,%edx
  401a8a:	be a8 32 40 00       	mov    $0x4032a8,%esi
  401a8f:	bf 01 00 00 00       	mov    $0x1,%edi
  401a94:	b8 00 00 00 00       	mov    $0x0,%eax
  401a99:	e8 82 f3 ff ff       	callq  400e20 <__printf_chk@plt>
  401a9e:	48 83 c4 08          	add    $0x8,%rsp
  401aa2:	c3                   	retq   
  401aa3:	66 2e 0f 1f 84 00 00 	nopw   %cs:0x0(%rax,%rax,1)
  401aaa:	00 00 00 
  401aad:	0f 1f 00             	nopl   (%rax)

0000000000401ab0 <save_char>:
  401ab0:	8b 05 8e 36 20 00    	mov    0x20368e(%rip),%eax        # 605144 <gets_cnt>
  401ab6:	3d ff 03 00 00       	cmp    $0x3ff,%eax
  401abb:	7f 49                	jg     401b06 <save_char+0x56>
  401abd:	8d 14 40             	lea    (%rax,%rax,2),%edx
  401ac0:	89 f9                	mov    %edi,%ecx
  401ac2:	c0 e9 04             	shr    $0x4,%cl
  401ac5:	83 e1 0f             	and    $0xf,%ecx
  401ac8:	0f b6 b1 d0 35 40 00 	movzbl 0x4035d0(%rcx),%esi
  401acf:	48 63 ca             	movslq %edx,%rcx
  401ad2:	40 88 b1 40 45 60 00 	mov    %sil,0x604540(%rcx)
  401ad9:	8d 4a 01             	lea    0x1(%rdx),%ecx
  401adc:	83 e7 0f             	and    $0xf,%edi
  401adf:	0f b6 b7 d0 35 40 00 	movzbl 0x4035d0(%rdi),%esi
  401ae6:	48 63 c9             	movslq %ecx,%rcx
  401ae9:	40 88 b1 40 45 60 00 	mov    %sil,0x604540(%rcx)
  401af0:	83 c2 02             	add    $0x2,%edx
  401af3:	48 63 d2             	movslq %edx,%rdx
  401af6:	c6 82 40 45 60 00 20 	movb   $0x20,0x604540(%rdx)
  401afd:	83 c0 01             	add    $0x1,%eax
  401b00:	89 05 3e 36 20 00    	mov    %eax,0x20363e(%rip)        # 605144 <gets_cnt>
  401b06:	f3 c3                	repz retq 

0000000000401b08 <save_term>:
  401b08:	8b 05 36 36 20 00    	mov    0x203636(%rip),%eax        # 605144 <gets_cnt>
  401b0e:	8d 04 40             	lea    (%rax,%rax,2),%eax
  401b11:	48 98                	cltq   
  401b13:	c6 80 40 45 60 00 00 	movb   $0x0,0x604540(%rax)
  401b1a:	c3                   	retq   

0000000000401b1b <check_fail>:
  401b1b:	48 83 ec 08          	sub    $0x8,%rsp
  401b1f:	0f be 15 22 36 20 00 	movsbl 0x203622(%rip),%edx        # 605148 <target_prefix>
  401b26:	41 b8 40 45 60 00    	mov    $0x604540,%r8d
  401b2c:	8b 0d e6 29 20 00    	mov    0x2029e6(%rip),%ecx        # 604518 <check_level>
  401b32:	be cb 32 40 00       	mov    $0x4032cb,%esi
  401b37:	bf 01 00 00 00       	mov    $0x1,%edi
  401b3c:	b8 00 00 00 00       	mov    $0x0,%eax
  401b41:	e8 da f2 ff ff       	callq  400e20 <__printf_chk@plt>
  401b46:	bf 01 00 00 00       	mov    $0x1,%edi
  401b4b:	e8 20 f3 ff ff       	callq  400e70 <exit@plt>

0000000000401b50 <Gets>:
  401b50:	41 54                	push   %r12
  401b52:	55                   	push   %rbp
  401b53:	53                   	push   %rbx
  401b54:	49 89 fc             	mov    %rdi,%r12
  401b57:	c7 05 e3 35 20 00 00 	movl   $0x0,0x2035e3(%rip)        # 605144 <gets_cnt>
  401b5e:	00 00 00 
  401b61:	48 89 fb             	mov    %rdi,%rbx
  401b64:	eb 11                	jmp    401b77 <Gets+0x27>
  401b66:	48 8d 6b 01          	lea    0x1(%rbx),%rbp
  401b6a:	88 03                	mov    %al,(%rbx)
  401b6c:	0f b6 f8             	movzbl %al,%edi
  401b6f:	e8 3c ff ff ff       	callq  401ab0 <save_char>
  401b74:	48 89 eb             	mov    %rbp,%rbx
  401b77:	48 8b 3d 92 29 20 00 	mov    0x202992(%rip),%rdi        # 604510 <infile>
  401b7e:	e8 6d f2 ff ff       	callq  400df0 <_IO_getc@plt>
  401b83:	83 f8 ff             	cmp    $0xffffffff,%eax
  401b86:	74 05                	je     401b8d <Gets+0x3d>
  401b88:	83 f8 0a             	cmp    $0xa,%eax
  401b8b:	75 d9                	jne    401b66 <Gets+0x16>
  401b8d:	c6 03 00             	movb   $0x0,(%rbx)
  401b90:	b8 00 00 00 00       	mov    $0x0,%eax
  401b95:	e8 6e ff ff ff       	callq  401b08 <save_term>
  401b9a:	4c 89 e0             	mov    %r12,%rax
  401b9d:	5b                   	pop    %rbx
  401b9e:	5d                   	pop    %rbp
  401b9f:	41 5c                	pop    %r12
  401ba1:	c3                   	retq   

0000000000401ba2 <notify_server>:
  401ba2:	53                   	push   %rbx
  401ba3:	48 81 ec 30 40 00 00 	sub    $0x4030,%rsp
  401baa:	64 48 8b 04 25 28 00 	mov    %fs:0x28,%rax
  401bb1:	00 00 
  401bb3:	48 89 84 24 28 40 00 	mov    %rax,0x4028(%rsp)
  401bba:	00 
  401bbb:	31 c0                	xor    %eax,%eax
  401bbd:	83 3d 64 29 20 00 00 	cmpl   $0x0,0x202964(%rip)        # 604528 <is_checker>
  401bc4:	0f 85 bb 01 00 00    	jne    401d85 <notify_server+0x1e3>
  401bca:	89 fb                	mov    %edi,%ebx
  401bcc:	8b 05 72 35 20 00    	mov    0x203572(%rip),%eax        # 605144 <gets_cnt>
  401bd2:	83 c0 64             	add    $0x64,%eax
  401bd5:	3d 00 20 00 00       	cmp    $0x2000,%eax
  401bda:	7e 1e                	jle    401bfa <notify_server+0x58>
  401bdc:	be 00 34 40 00       	mov    $0x403400,%esi
  401be1:	bf 01 00 00 00       	mov    $0x1,%edi
  401be6:	b8 00 00 00 00       	mov    $0x0,%eax
  401beb:	e8 30 f2 ff ff       	callq  400e20 <__printf_chk@plt>
  401bf0:	bf 01 00 00 00       	mov    $0x1,%edi
  401bf5:	e8 76 f2 ff ff       	callq  400e70 <exit@plt>
  401bfa:	0f be 05 47 35 20 00 	movsbl 0x203547(%rip),%eax        # 605148 <target_prefix>
  401c01:	83 3d a0 28 20 00 00 	cmpl   $0x0,0x2028a0(%rip)        # 6044a8 <notify>
  401c08:	74 08                	je     401c12 <notify_server+0x70>
  401c0a:	8b 15 10 29 20 00    	mov    0x202910(%rip),%edx        # 604520 <authkey>
  401c10:	eb 05                	jmp    401c17 <notify_server+0x75>
  401c12:	ba ff ff ff ff       	mov    $0xffffffff,%edx
  401c17:	85 db                	test   %ebx,%ebx
  401c19:	74 08                	je     401c23 <notify_server+0x81>
  401c1b:	41 b9 e1 32 40 00    	mov    $0x4032e1,%r9d
  401c21:	eb 06                	jmp    401c29 <notify_server+0x87>
  401c23:	41 b9 e6 32 40 00    	mov    $0x4032e6,%r9d
  401c29:	48 c7 44 24 18 40 45 	movq   $0x604540,0x18(%rsp)
  401c30:	60 00 
  401c32:	89 74 24 10          	mov    %esi,0x10(%rsp)
  401c36:	89 44 24 08          	mov    %eax,0x8(%rsp)
  401c3a:	89 14 24             	mov    %edx,(%rsp)
  401c3d:	44 8b 05 24 25 20 00 	mov    0x202524(%rip),%r8d        # 604168 <target_id>
  401c44:	b9 eb 32 40 00       	mov    $0x4032eb,%ecx
  401c49:	ba 00 20 00 00       	mov    $0x2000,%edx
  401c4e:	be 01 00 00 00       	mov    $0x1,%esi
  401c53:	48 8d 7c 24 20       	lea    0x20(%rsp),%rdi
  401c58:	b8 00 00 00 00       	mov    $0x0,%eax
  401c5d:	e8 3e f2 ff ff       	callq  400ea0 <__sprintf_chk@plt>
  401c62:	83 3d 3f 28 20 00 00 	cmpl   $0x0,0x20283f(%rip)        # 6044a8 <notify>
  401c69:	0f 84 86 00 00 00    	je     401cf5 <notify_server+0x153>
  401c6f:	85 db                	test   %ebx,%ebx
  401c71:	74 70                	je     401ce3 <notify_server+0x141>
  401c73:	4c 8d 8c 24 20 20 00 	lea    0x2020(%rsp),%r9
  401c7a:	00 
  401c7b:	41 b8 00 00 00 00    	mov    $0x0,%r8d
  401c81:	48 8d 4c 24 20       	lea    0x20(%rsp),%rcx
  401c86:	48 8b 15 e3 24 20 00 	mov    0x2024e3(%rip),%rdx        # 604170 <lab>
  401c8d:	48 8b 35 e4 24 20 00 	mov    0x2024e4(%rip),%rsi        # 604178 <course>
  401c94:	48 8b 3d c5 24 20 00 	mov    0x2024c5(%rip),%rdi        # 604160 <user_id>
  401c9b:	e8 be 10 00 00       	callq  402d5e <driver_post>
  401ca0:	85 c0                	test   %eax,%eax
  401ca2:	79 26                	jns    401cca <notify_server+0x128>
  401ca4:	48 8d 94 24 20 20 00 	lea    0x2020(%rsp),%rdx
  401cab:	00 
  401cac:	be 07 33 40 00       	mov    $0x403307,%esi
  401cb1:	bf 01 00 00 00       	mov    $0x1,%edi
  401cb6:	b8 00 00 00 00       	mov    $0x0,%eax
  401cbb:	e8 60 f1 ff ff       	callq  400e20 <__printf_chk@plt>
  401cc0:	bf 01 00 00 00       	mov    $0x1,%edi
  401cc5:	e8 a6 f1 ff ff       	callq  400e70 <exit@plt>
  401cca:	bf 30 34 40 00       	mov    $0x403430,%edi
  401ccf:	e8 0c f0 ff ff       	callq  400ce0 <puts@plt>
  401cd4:	bf 13 33 40 00       	mov    $0x403313,%edi
  401cd9:	e8 02 f0 ff ff       	callq  400ce0 <puts@plt>
  401cde:	e9 a2 00 00 00       	jmpq   401d85 <notify_server+0x1e3>
  401ce3:	bf 1d 33 40 00       	mov    $0x40331d,%edi
  401ce8:	e8 f3 ef ff ff       	callq  400ce0 <puts@plt>
  401ced:	0f 1f 00             	nopl   (%rax)
  401cf0:	e9 90 00 00 00       	jmpq   401d85 <notify_server+0x1e3>
  401cf5:	85 db                	test   %ebx,%ebx
  401cf7:	74 09                	je     401d02 <notify_server+0x160>
  401cf9:	ba e1 32 40 00       	mov    $0x4032e1,%edx
  401cfe:	66 90                	xchg   %ax,%ax
  401d00:	eb 05                	jmp    401d07 <notify_server+0x165>
  401d02:	ba e6 32 40 00       	mov    $0x4032e6,%edx
  401d07:	be 68 34 40 00       	mov    $0x403468,%esi
  401d0c:	bf 01 00 00 00       	mov    $0x1,%edi
  401d11:	b8 00 00 00 00       	mov    $0x0,%eax
  401d16:	e8 05 f1 ff ff       	callq  400e20 <__printf_chk@plt>
  401d1b:	48 8b 15 3e 24 20 00 	mov    0x20243e(%rip),%rdx        # 604160 <user_id>
  401d22:	be 24 33 40 00       	mov    $0x403324,%esi
  401d27:	bf 01 00 00 00       	mov    $0x1,%edi
  401d2c:	b8 00 00 00 00       	mov    $0x0,%eax
  401d31:	e8 ea f0 ff ff       	callq  400e20 <__printf_chk@plt>
  401d36:	48 8b 15 3b 24 20 00 	mov    0x20243b(%rip),%rdx        # 604178 <course>
  401d3d:	be 31 33 40 00       	mov    $0x403331,%esi
  401d42:	bf 01 00 00 00       	mov    $0x1,%edi
  401d47:	b8 00 00 00 00       	mov    $0x0,%eax
  401d4c:	e8 cf f0 ff ff       	callq  400e20 <__printf_chk@plt>
  401d51:	48 8b 15 18 24 20 00 	mov    0x202418(%rip),%rdx        # 604170 <lab>
  401d58:	be 3d 33 40 00       	mov    $0x40333d,%esi
  401d5d:	bf 01 00 00 00       	mov    $0x1,%edi
  401d62:	b8 00 00 00 00       	mov    $0x0,%eax
  401d67:	e8 b4 f0 ff ff       	callq  400e20 <__printf_chk@plt>
  401d6c:	48 8d 54 24 20       	lea    0x20(%rsp),%rdx
  401d71:	be 46 33 40 00       	mov    $0x403346,%esi
  401d76:	bf 01 00 00 00       	mov    $0x1,%edi
  401d7b:	b8 00 00 00 00       	mov    $0x0,%eax
  401d80:	e8 9b f0 ff ff       	callq  400e20 <__printf_chk@plt>
  401d85:	48 8b 84 24 28 40 00 	mov    0x4028(%rsp),%rax
  401d8c:	00 
  401d8d:	64 48 33 04 25 28 00 	xor    %fs:0x28,%rax
  401d94:	00 00 
  401d96:	74 05                	je     401d9d <notify_server+0x1fb>
  401d98:	e8 63 ef ff ff       	callq  400d00 <__stack_chk_fail@plt>
  401d9d:	48 81 c4 30 40 00 00 	add    $0x4030,%rsp
  401da4:	5b                   	pop    %rbx
  401da5:	c3                   	retq   

0000000000401da6 <validate>:
  401da6:	53                   	push   %rbx
  401da7:	89 fb                	mov    %edi,%ebx
  401da9:	83 3d 78 27 20 00 00 	cmpl   $0x0,0x202778(%rip)        # 604528 <is_checker>
  401db0:	74 6b                	je     401e1d <validate+0x77>
  401db2:	39 3d 64 27 20 00    	cmp    %edi,0x202764(%rip)        # 60451c <vlevel>
  401db8:	74 14                	je     401dce <validate+0x28>
  401dba:	bf 52 33 40 00       	mov    $0x403352,%edi
  401dbf:	e8 1c ef ff ff       	callq  400ce0 <puts@plt>
  401dc4:	b8 00 00 00 00       	mov    $0x0,%eax
  401dc9:	e8 4d fd ff ff       	callq  401b1b <check_fail>
  401dce:	8b 15 44 27 20 00    	mov    0x202744(%rip),%edx        # 604518 <check_level>
  401dd4:	39 fa                	cmp    %edi,%edx
  401dd6:	74 20                	je     401df8 <validate+0x52>
  401dd8:	89 f9                	mov    %edi,%ecx
  401dda:	be 90 34 40 00       	mov    $0x403490,%esi
  401ddf:	bf 01 00 00 00       	mov    $0x1,%edi
  401de4:	b8 00 00 00 00       	mov    $0x0,%eax
  401de9:	e8 32 f0 ff ff       	callq  400e20 <__printf_chk@plt>
  401dee:	b8 00 00 00 00       	mov    $0x0,%eax
  401df3:	e8 23 fd ff ff       	callq  401b1b <check_fail>
  401df8:	0f be 15 49 33 20 00 	movsbl 0x203349(%rip),%edx        # 605148 <target_prefix>
  401dff:	41 b8 40 45 60 00    	mov    $0x604540,%r8d
  401e05:	89 f9                	mov    %edi,%ecx
  401e07:	be 70 33 40 00       	mov    $0x403370,%esi
  401e0c:	bf 01 00 00 00       	mov    $0x1,%edi
  401e11:	b8 00 00 00 00       	mov    $0x0,%eax
  401e16:	e8 05 f0 ff ff       	callq  400e20 <__printf_chk@plt>
  401e1b:	eb 49                	jmp    401e66 <validate+0xc0>
  401e1d:	39 3d f9 26 20 00    	cmp    %edi,0x2026f9(%rip)        # 60451c <vlevel>
  401e23:	74 18                	je     401e3d <validate+0x97>
  401e25:	bf 52 33 40 00       	mov    $0x403352,%edi
  401e2a:	e8 b1 ee ff ff       	callq  400ce0 <puts@plt>
  401e2f:	89 de                	mov    %ebx,%esi
  401e31:	bf 00 00 00 00       	mov    $0x0,%edi
  401e36:	e8 67 fd ff ff       	callq  401ba2 <notify_server>
  401e3b:	eb 29                	jmp    401e66 <validate+0xc0>
  401e3d:	0f be 0d 04 33 20 00 	movsbl 0x203304(%rip),%ecx        # 605148 <target_prefix>
  401e44:	89 fa                	mov    %edi,%edx
  401e46:	be b8 34 40 00       	mov    $0x4034b8,%esi
  401e4b:	bf 01 00 00 00       	mov    $0x1,%edi
  401e50:	b8 00 00 00 00       	mov    $0x0,%eax
  401e55:	e8 c6 ef ff ff       	callq  400e20 <__printf_chk@plt>
  401e5a:	89 de                	mov    %ebx,%esi
  401e5c:	bf 01 00 00 00       	mov    $0x1,%edi
  401e61:	e8 3c fd ff ff       	callq  401ba2 <notify_server>
  401e66:	5b                   	pop    %rbx
  401e67:	c3                   	retq   

0000000000401e68 <fail>:
  401e68:	48 83 ec 08          	sub    $0x8,%rsp
  401e6c:	83 3d b5 26 20 00 00 	cmpl   $0x0,0x2026b5(%rip)        # 604528 <is_checker>
  401e73:	74 0a                	je     401e7f <fail+0x17>
  401e75:	b8 00 00 00 00       	mov    $0x0,%eax
  401e7a:	e8 9c fc ff ff       	callq  401b1b <check_fail>
  401e7f:	89 fe                	mov    %edi,%esi
  401e81:	bf 00 00 00 00       	mov    $0x0,%edi
  401e86:	e8 17 fd ff ff       	callq  401ba2 <notify_server>
  401e8b:	48 83 c4 08          	add    $0x8,%rsp
  401e8f:	c3                   	retq   

0000000000401e90 <bushandler>:
  401e90:	48 83 ec 08          	sub    $0x8,%rsp
  401e94:	83 3d 8d 26 20 00 00 	cmpl   $0x0,0x20268d(%rip)        # 604528 <is_checker>
  401e9b:	74 14                	je     401eb1 <bushandler+0x21>
  401e9d:	bf 85 33 40 00       	mov    $0x403385,%edi
  401ea2:	e8 39 ee ff ff       	callq  400ce0 <puts@plt>
  401ea7:	b8 00 00 00 00       	mov    $0x0,%eax
  401eac:	e8 6a fc ff ff       	callq  401b1b <check_fail>
  401eb1:	bf f0 34 40 00       	mov    $0x4034f0,%edi
  401eb6:	e8 25 ee ff ff       	callq  400ce0 <puts@plt>
  401ebb:	bf 8f 33 40 00       	mov    $0x40338f,%edi
  401ec0:	e8 1b ee ff ff       	callq  400ce0 <puts@plt>
  401ec5:	be 00 00 00 00       	mov    $0x0,%esi
  401eca:	bf 00 00 00 00       	mov    $0x0,%edi
  401ecf:	e8 ce fc ff ff       	callq  401ba2 <notify_server>
  401ed4:	bf 01 00 00 00       	mov    $0x1,%edi
  401ed9:	e8 92 ef ff ff       	callq  400e70 <exit@plt>

0000000000401ede <seghandler>:
  401ede:	48 83 ec 08          	sub    $0x8,%rsp
  401ee2:	83 3d 3f 26 20 00 00 	cmpl   $0x0,0x20263f(%rip)        # 604528 <is_checker>
  401ee9:	74 14                	je     401eff <seghandler+0x21>
  401eeb:	bf a5 33 40 00       	mov    $0x4033a5,%edi
  401ef0:	e8 eb ed ff ff       	callq  400ce0 <puts@plt>
  401ef5:	b8 00 00 00 00       	mov    $0x0,%eax
  401efa:	e8 1c fc ff ff       	callq  401b1b <check_fail>
  401eff:	bf 10 35 40 00       	mov    $0x403510,%edi
  401f04:	e8 d7 ed ff ff       	callq  400ce0 <puts@plt>
  401f09:	bf 8f 33 40 00       	mov    $0x40338f,%edi
  401f0e:	e8 cd ed ff ff       	callq  400ce0 <puts@plt>
  401f13:	be 00 00 00 00       	mov    $0x0,%esi
  401f18:	bf 00 00 00 00       	mov    $0x0,%edi
  401f1d:	e8 80 fc ff ff       	callq  401ba2 <notify_server>
  401f22:	bf 01 00 00 00       	mov    $0x1,%edi
  401f27:	e8 44 ef ff ff       	callq  400e70 <exit@plt>

0000000000401f2c <illegalhandler>:
  401f2c:	48 83 ec 08          	sub    $0x8,%rsp
  401f30:	83 3d f1 25 20 00 00 	cmpl   $0x0,0x2025f1(%rip)        # 604528 <is_checker>
  401f37:	74 14                	je     401f4d <illegalhandler+0x21>
  401f39:	bf b8 33 40 00       	mov    $0x4033b8,%edi
  401f3e:	e8 9d ed ff ff       	callq  400ce0 <puts@plt>
  401f43:	b8 00 00 00 00       	mov    $0x0,%eax
  401f48:	e8 ce fb ff ff       	callq  401b1b <check_fail>
  401f4d:	bf 38 35 40 00       	mov    $0x403538,%edi
  401f52:	e8 89 ed ff ff       	callq  400ce0 <puts@plt>
  401f57:	bf 8f 33 40 00       	mov    $0x40338f,%edi
  401f5c:	e8 7f ed ff ff       	callq  400ce0 <puts@plt>
  401f61:	be 00 00 00 00       	mov    $0x0,%esi
  401f66:	bf 00 00 00 00       	mov    $0x0,%edi
  401f6b:	e8 32 fc ff ff       	callq  401ba2 <notify_server>
  401f70:	bf 01 00 00 00       	mov    $0x1,%edi
  401f75:	e8 f6 ee ff ff       	callq  400e70 <exit@plt>

0000000000401f7a <sigalrmhandler>:
  401f7a:	48 83 ec 08          	sub    $0x8,%rsp
  401f7e:	83 3d a3 25 20 00 00 	cmpl   $0x0,0x2025a3(%rip)        # 604528 <is_checker>
  401f85:	74 14                	je     401f9b <sigalrmhandler+0x21>
  401f87:	bf cc 33 40 00       	mov    $0x4033cc,%edi
  401f8c:	e8 4f ed ff ff       	callq  400ce0 <puts@plt>
  401f91:	b8 00 00 00 00       	mov    $0x0,%eax
  401f96:	e8 80 fb ff ff       	callq  401b1b <check_fail>
  401f9b:	ba 05 00 00 00       	mov    $0x5,%edx
  401fa0:	be 68 35 40 00       	mov    $0x403568,%esi
  401fa5:	bf 01 00 00 00       	mov    $0x1,%edi
  401faa:	b8 00 00 00 00       	mov    $0x0,%eax
  401faf:	e8 6c ee ff ff       	callq  400e20 <__printf_chk@plt>
  401fb4:	be 00 00 00 00       	mov    $0x0,%esi
  401fb9:	bf 00 00 00 00       	mov    $0x0,%edi
  401fbe:	e8 df fb ff ff       	callq  401ba2 <notify_server>
  401fc3:	bf 01 00 00 00       	mov    $0x1,%edi
  401fc8:	e8 a3 ee ff ff       	callq  400e70 <exit@plt>

0000000000401fcd <launch>:
  401fcd:	55                   	push   %rbp
  401fce:	48 89 e5             	mov    %rsp,%rbp
  401fd1:	48 83 ec 10          	sub    $0x10,%rsp
  401fd5:	48 89 fa             	mov    %rdi,%rdx
  401fd8:	64 48 8b 04 25 28 00 	mov    %fs:0x28,%rax
  401fdf:	00 00 
  401fe1:	48 89 45 f8          	mov    %rax,-0x8(%rbp)
  401fe5:	31 c0                	xor    %eax,%eax
  401fe7:	48 8d 47 1e          	lea    0x1e(%rdi),%rax
  401feb:	48 83 e0 f0          	and    $0xfffffffffffffff0,%rax
  401fef:	48 29 c4             	sub    %rax,%rsp
  401ff2:	48 8d 7c 24 0f       	lea    0xf(%rsp),%rdi
  401ff7:	48 83 e7 f0          	and    $0xfffffffffffffff0,%rdi
  401ffb:	be f4 00 00 00       	mov    $0xf4,%esi
  402000:	e8 1b ed ff ff       	callq  400d20 <memset@plt>
  402005:	48 8b 05 b4 24 20 00 	mov    0x2024b4(%rip),%rax        # 6044c0 <stdin@@GLIBC_2.2.5>
  40200c:	48 39 05 fd 24 20 00 	cmp    %rax,0x2024fd(%rip)        # 604510 <infile>
  402013:	75 14                	jne    402029 <launch+0x5c>
  402015:	be d4 33 40 00       	mov    $0x4033d4,%esi
  40201a:	bf 01 00 00 00       	mov    $0x1,%edi
  40201f:	b8 00 00 00 00       	mov    $0x0,%eax
  402024:	e8 f7 ed ff ff       	callq  400e20 <__printf_chk@plt>
  402029:	c7 05 e9 24 20 00 00 	movl   $0x0,0x2024e9(%rip)        # 60451c <vlevel>
  402030:	00 00 00 
  402033:	b8 00 00 00 00       	mov    $0x0,%eax
  402038:	e8 3d fa ff ff       	callq  401a7a <test>
  40203d:	83 3d e4 24 20 00 00 	cmpl   $0x0,0x2024e4(%rip)        # 604528 <is_checker>
  402044:	74 14                	je     40205a <launch+0x8d>
  402046:	bf e1 33 40 00       	mov    $0x4033e1,%edi
  40204b:	e8 90 ec ff ff       	callq  400ce0 <puts@plt>
  402050:	b8 00 00 00 00       	mov    $0x0,%eax
  402055:	e8 c1 fa ff ff       	callq  401b1b <check_fail>
  40205a:	bf ec 33 40 00       	mov    $0x4033ec,%edi
  40205f:	e8 7c ec ff ff       	callq  400ce0 <puts@plt>
  402064:	48 8b 45 f8          	mov    -0x8(%rbp),%rax
  402068:	64 48 33 04 25 28 00 	xor    %fs:0x28,%rax
  40206f:	00 00 
  402071:	74 05                	je     402078 <launch+0xab>
  402073:	e8 88 ec ff ff       	callq  400d00 <__stack_chk_fail@plt>
  402078:	c9                   	leaveq 
  402079:	c3                   	retq   

000000000040207a <stable_launch>:
  40207a:	53                   	push   %rbx
  40207b:	48 89 3d 86 24 20 00 	mov    %rdi,0x202486(%rip)        # 604508 <global_offset>
  402082:	41 b9 00 00 00 00    	mov    $0x0,%r9d
  402088:	41 b8 00 00 00 00    	mov    $0x0,%r8d
  40208e:	b9 32 01 00 00       	mov    $0x132,%ecx
  402093:	ba 07 00 00 00       	mov    $0x7,%edx
  402098:	be 00 00 10 00       	mov    $0x100000,%esi
  40209d:	bf 00 60 58 55       	mov    $0x55586000,%edi
  4020a2:	e8 69 ec ff ff       	callq  400d10 <mmap@plt>
  4020a7:	48 89 c3             	mov    %rax,%rbx
  4020aa:	48 3d 00 60 58 55    	cmp    $0x55586000,%rax
  4020b0:	74 37                	je     4020e9 <stable_launch+0x6f>
  4020b2:	be 00 00 10 00       	mov    $0x100000,%esi
  4020b7:	48 89 c7             	mov    %rax,%rdi
  4020ba:	e8 51 ed ff ff       	callq  400e10 <munmap@plt>
  4020bf:	b9 00 60 58 55       	mov    $0x55586000,%ecx
  4020c4:	ba a0 35 40 00       	mov    $0x4035a0,%edx
  4020c9:	be 01 00 00 00       	mov    $0x1,%esi
  4020ce:	48 8b 3d 13 24 20 00 	mov    0x202413(%rip),%rdi        # 6044e8 <stderr@@GLIBC_2.2.5>
  4020d5:	b8 00 00 00 00       	mov    $0x0,%eax
  4020da:	e8 b1 ed ff ff       	callq  400e90 <__fprintf_chk@plt>
  4020df:	bf 01 00 00 00       	mov    $0x1,%edi
  4020e4:	e8 87 ed ff ff       	callq  400e70 <exit@plt>
  4020e9:	48 8d 90 f8 ff 0f 00 	lea    0xffff8(%rax),%rdx
  4020f0:	48 89 15 59 30 20 00 	mov    %rdx,0x203059(%rip)        # 605150 <stack_top>
  4020f7:	48 89 e0             	mov    %rsp,%rax
  4020fa:	48 89 d4             	mov    %rdx,%rsp
  4020fd:	48 89 c2             	mov    %rax,%rdx
  402100:	48 89 15 f9 23 20 00 	mov    %rdx,0x2023f9(%rip)        # 604500 <global_save_stack>
  402107:	48 8b 3d fa 23 20 00 	mov    0x2023fa(%rip),%rdi        # 604508 <global_offset>
  40210e:	e8 ba fe ff ff       	callq  401fcd <launch>
  402113:	48 8b 05 e6 23 20 00 	mov    0x2023e6(%rip),%rax        # 604500 <global_save_stack>
  40211a:	48 89 c4             	mov    %rax,%rsp
  40211d:	be 00 00 10 00       	mov    $0x100000,%esi
  402122:	48 89 df             	mov    %rbx,%rdi
  402125:	e8 e6 ec ff ff       	callq  400e10 <munmap@plt>
  40212a:	5b                   	pop    %rbx
  40212b:	c3                   	retq   
  40212c:	0f 1f 40 00          	nopl   0x0(%rax)

0000000000402130 <rio_readinitb>:
  402130:	89 37                	mov    %esi,(%rdi)
  402132:	c7 47 04 00 00 00 00 	movl   $0x0,0x4(%rdi)
  402139:	48 8d 47 10          	lea    0x10(%rdi),%rax
  40213d:	48 89 47 08          	mov    %rax,0x8(%rdi)
  402141:	c3                   	retq   

0000000000402142 <sigalrm_handler>:
  402142:	48 83 ec 08          	sub    $0x8,%rsp
  402146:	b9 00 00 00 00       	mov    $0x0,%ecx
  40214b:	ba e0 35 40 00       	mov    $0x4035e0,%edx
  402150:	be 01 00 00 00       	mov    $0x1,%esi
  402155:	48 8b 3d 8c 23 20 00 	mov    0x20238c(%rip),%rdi        # 6044e8 <stderr@@GLIBC_2.2.5>
  40215c:	b8 00 00 00 00       	mov    $0x0,%eax
  402161:	e8 2a ed ff ff       	callq  400e90 <__fprintf_chk@plt>
  402166:	bf 01 00 00 00       	mov    $0x1,%edi
  40216b:	e8 00 ed ff ff       	callq  400e70 <exit@plt>

0000000000402170 <rio_writen>:
  402170:	41 55                	push   %r13
  402172:	41 54                	push   %r12
  402174:	55                   	push   %rbp
  402175:	53                   	push   %rbx
  402176:	48 83 ec 08          	sub    $0x8,%rsp
  40217a:	41 89 fc             	mov    %edi,%r12d
  40217d:	48 89 f5             	mov    %rsi,%rbp
  402180:	49 89 d5             	mov    %rdx,%r13
  402183:	48 89 d3             	mov    %rdx,%rbx
  402186:	eb 28                	jmp    4021b0 <rio_writen+0x40>
  402188:	48 89 da             	mov    %rbx,%rdx
  40218b:	48 89 ee             	mov    %rbp,%rsi
  40218e:	44 89 e7             	mov    %r12d,%edi
  402191:	e8 5a eb ff ff       	callq  400cf0 <write@plt>
  402196:	48 85 c0             	test   %rax,%rax
  402199:	7f 0f                	jg     4021aa <rio_writen+0x3a>
  40219b:	e8 00 eb ff ff       	callq  400ca0 <__errno_location@plt>
  4021a0:	83 38 04             	cmpl   $0x4,(%rax)
  4021a3:	75 15                	jne    4021ba <rio_writen+0x4a>
  4021a5:	b8 00 00 00 00       	mov    $0x0,%eax
  4021aa:	48 29 c3             	sub    %rax,%rbx
  4021ad:	48 01 c5             	add    %rax,%rbp
  4021b0:	48 85 db             	test   %rbx,%rbx
  4021b3:	75 d3                	jne    402188 <rio_writen+0x18>
  4021b5:	4c 89 e8             	mov    %r13,%rax
  4021b8:	eb 07                	jmp    4021c1 <rio_writen+0x51>
  4021ba:	48 c7 c0 ff ff ff ff 	mov    $0xffffffffffffffff,%rax
  4021c1:	48 83 c4 08          	add    $0x8,%rsp
  4021c5:	5b                   	pop    %rbx
  4021c6:	5d                   	pop    %rbp
  4021c7:	41 5c                	pop    %r12
  4021c9:	41 5d                	pop    %r13
  4021cb:	c3                   	retq   

00000000004021cc <rio_read>:
  4021cc:	41 56                	push   %r14
  4021ce:	41 55                	push   %r13
  4021d0:	41 54                	push   %r12
  4021d2:	55                   	push   %rbp
  4021d3:	53                   	push   %rbx
  4021d4:	48 89 fb             	mov    %rdi,%rbx
  4021d7:	49 89 f6             	mov    %rsi,%r14
  4021da:	49 89 d5             	mov    %rdx,%r13
  4021dd:	4c 8d 67 10          	lea    0x10(%rdi),%r12
  4021e1:	eb 2a                	jmp    40220d <rio_read+0x41>
  4021e3:	8b 3b                	mov    (%rbx),%edi
  4021e5:	ba 00 20 00 00       	mov    $0x2000,%edx
  4021ea:	4c 89 e6             	mov    %r12,%rsi
  4021ed:	e8 5e eb ff ff       	callq  400d50 <read@plt>
  4021f2:	89 43 04             	mov    %eax,0x4(%rbx)
  4021f5:	85 c0                	test   %eax,%eax
  4021f7:	79 0c                	jns    402205 <rio_read+0x39>
  4021f9:	e8 a2 ea ff ff       	callq  400ca0 <__errno_location@plt>
  4021fe:	83 38 04             	cmpl   $0x4,(%rax)
  402201:	74 0a                	je     40220d <rio_read+0x41>
  402203:	eb 37                	jmp    40223c <rio_read+0x70>
  402205:	85 c0                	test   %eax,%eax
  402207:	74 3c                	je     402245 <rio_read+0x79>
  402209:	4c 89 63 08          	mov    %r12,0x8(%rbx)
  40220d:	8b 6b 04             	mov    0x4(%rbx),%ebp
  402210:	85 ed                	test   %ebp,%ebp
  402212:	7e cf                	jle    4021e3 <rio_read+0x17>
  402214:	89 e8                	mov    %ebp,%eax
  402216:	4c 39 e8             	cmp    %r13,%rax
  402219:	72 03                	jb     40221e <rio_read+0x52>
  40221b:	44 89 ed             	mov    %r13d,%ebp
  40221e:	4c 63 e5             	movslq %ebp,%r12
  402221:	48 8b 73 08          	mov    0x8(%rbx),%rsi
  402225:	4c 89 e2             	mov    %r12,%rdx
  402228:	4c 89 f7             	mov    %r14,%rdi
  40222b:	e8 90 eb ff ff       	callq  400dc0 <memcpy@plt>
  402230:	4c 01 63 08          	add    %r12,0x8(%rbx)
  402234:	29 6b 04             	sub    %ebp,0x4(%rbx)
  402237:	4c 89 e0             	mov    %r12,%rax
  40223a:	eb 0e                	jmp    40224a <rio_read+0x7e>
  40223c:	48 c7 c0 ff ff ff ff 	mov    $0xffffffffffffffff,%rax
  402243:	eb 05                	jmp    40224a <rio_read+0x7e>
  402245:	b8 00 00 00 00       	mov    $0x0,%eax
  40224a:	5b                   	pop    %rbx
  40224b:	5d                   	pop    %rbp
  40224c:	41 5c                	pop    %r12
  40224e:	41 5d                	pop    %r13
  402250:	41 5e                	pop    %r14
  402252:	c3                   	retq   

0000000000402253 <rio_readlineb>:
  402253:	41 55                	push   %r13
  402255:	41 54                	push   %r12
  402257:	55                   	push   %rbp
  402258:	53                   	push   %rbx
  402259:	48 83 ec 18          	sub    $0x18,%rsp
  40225d:	49 89 fd             	mov    %rdi,%r13
  402260:	48 89 f5             	mov    %rsi,%rbp
  402263:	49 89 d4             	mov    %rdx,%r12
  402266:	bb 01 00 00 00       	mov    $0x1,%ebx
  40226b:	eb 3e                	jmp    4022ab <rio_readlineb+0x58>
  40226d:	ba 01 00 00 00       	mov    $0x1,%edx
  402272:	48 8d 74 24 0f       	lea    0xf(%rsp),%rsi
  402277:	4c 89 ef             	mov    %r13,%rdi
  40227a:	e8 4d ff ff ff       	callq  4021cc <rio_read>
  40227f:	83 f8 01             	cmp    $0x1,%eax
  402282:	75 12                	jne    402296 <rio_readlineb+0x43>
  402284:	48 8d 55 01          	lea    0x1(%rbp),%rdx
  402288:	0f b6 44 24 0f       	movzbl 0xf(%rsp),%eax
  40228d:	88 45 00             	mov    %al,0x0(%rbp)
  402290:	3c 0a                	cmp    $0xa,%al
  402292:	75 10                	jne    4022a4 <rio_readlineb+0x51>
  402294:	eb 1c                	jmp    4022b2 <rio_readlineb+0x5f>
  402296:	85 c0                	test   %eax,%eax
  402298:	75 24                	jne    4022be <rio_readlineb+0x6b>
  40229a:	48 83 fb 01          	cmp    $0x1,%rbx
  40229e:	66 90                	xchg   %ax,%ax
  4022a0:	75 13                	jne    4022b5 <rio_readlineb+0x62>
  4022a2:	eb 23                	jmp    4022c7 <rio_readlineb+0x74>
  4022a4:	48 83 c3 01          	add    $0x1,%rbx
  4022a8:	48 89 d5             	mov    %rdx,%rbp
  4022ab:	4c 39 e3             	cmp    %r12,%rbx
  4022ae:	72 bd                	jb     40226d <rio_readlineb+0x1a>
  4022b0:	eb 03                	jmp    4022b5 <rio_readlineb+0x62>
  4022b2:	48 89 d5             	mov    %rdx,%rbp
  4022b5:	c6 45 00 00          	movb   $0x0,0x0(%rbp)
  4022b9:	48 89 d8             	mov    %rbx,%rax
  4022bc:	eb 0e                	jmp    4022cc <rio_readlineb+0x79>
  4022be:	48 c7 c0 ff ff ff ff 	mov    $0xffffffffffffffff,%rax
  4022c5:	eb 05                	jmp    4022cc <rio_readlineb+0x79>
  4022c7:	b8 00 00 00 00       	mov    $0x0,%eax
  4022cc:	48 83 c4 18          	add    $0x18,%rsp
  4022d0:	5b                   	pop    %rbx
  4022d1:	5d                   	pop    %rbp
  4022d2:	41 5c                	pop    %r12
  4022d4:	41 5d                	pop    %r13
  4022d6:	c3                   	retq   

00000000004022d7 <urlencode>:
  4022d7:	41 54                	push   %r12
  4022d9:	55                   	push   %rbp
  4022da:	53                   	push   %rbx
  4022db:	48 83 ec 10          	sub    $0x10,%rsp
  4022df:	48 89 fb             	mov    %rdi,%rbx
  4022e2:	48 89 f5             	mov    %rsi,%rbp
  4022e5:	64 48 8b 04 25 28 00 	mov    %fs:0x28,%rax
  4022ec:	00 00 
  4022ee:	48 89 44 24 08       	mov    %rax,0x8(%rsp)
  4022f3:	31 c0                	xor    %eax,%eax
  4022f5:	48 c7 c1 ff ff ff ff 	mov    $0xffffffffffffffff,%rcx
  4022fc:	f2 ae                	repnz scas %es:(%rdi),%al
  4022fe:	48 f7 d1             	not    %rcx
  402301:	8d 41 ff             	lea    -0x1(%rcx),%eax
  402304:	e9 aa 00 00 00       	jmpq   4023b3 <urlencode+0xdc>
  402309:	44 0f b6 03          	movzbl (%rbx),%r8d
  40230d:	41 80 f8 2a          	cmp    $0x2a,%r8b
  402311:	0f 94 c2             	sete   %dl
  402314:	41 80 f8 2d          	cmp    $0x2d,%r8b
  402318:	0f 94 c0             	sete   %al
  40231b:	08 c2                	or     %al,%dl
  40231d:	75 24                	jne    402343 <urlencode+0x6c>
  40231f:	41 80 f8 2e          	cmp    $0x2e,%r8b
  402323:	74 1e                	je     402343 <urlencode+0x6c>
  402325:	41 80 f8 5f          	cmp    $0x5f,%r8b
  402329:	74 18                	je     402343 <urlencode+0x6c>
  40232b:	41 8d 40 d0          	lea    -0x30(%r8),%eax
  40232f:	3c 09                	cmp    $0x9,%al
  402331:	76 10                	jbe    402343 <urlencode+0x6c>
  402333:	41 8d 40 bf          	lea    -0x41(%r8),%eax
  402337:	3c 19                	cmp    $0x19,%al
  402339:	76 08                	jbe    402343 <urlencode+0x6c>
  40233b:	41 8d 40 9f          	lea    -0x61(%r8),%eax
  40233f:	3c 19                	cmp    $0x19,%al
  402341:	77 0a                	ja     40234d <urlencode+0x76>
  402343:	44 88 45 00          	mov    %r8b,0x0(%rbp)
  402347:	48 8d 6d 01          	lea    0x1(%rbp),%rbp
  40234b:	eb 5f                	jmp    4023ac <urlencode+0xd5>
  40234d:	41 80 f8 20          	cmp    $0x20,%r8b
  402351:	75 0a                	jne    40235d <urlencode+0x86>
  402353:	c6 45 00 2b          	movb   $0x2b,0x0(%rbp)
  402357:	48 8d 6d 01          	lea    0x1(%rbp),%rbp
  40235b:	eb 4f                	jmp    4023ac <urlencode+0xd5>
  40235d:	41 8d 40 e0          	lea    -0x20(%r8),%eax
  402361:	3c 5f                	cmp    $0x5f,%al
  402363:	0f 96 c2             	setbe  %dl
  402366:	41 80 f8 09          	cmp    $0x9,%r8b
  40236a:	0f 94 c0             	sete   %al
  40236d:	08 c2                	or     %al,%dl
  40236f:	74 50                	je     4023c1 <urlencode+0xea>
  402371:	45 0f b6 c0          	movzbl %r8b,%r8d
  402375:	b9 78 36 40 00       	mov    $0x403678,%ecx
  40237a:	ba 08 00 00 00       	mov    $0x8,%edx
  40237f:	be 01 00 00 00       	mov    $0x1,%esi
  402384:	48 89 e7             	mov    %rsp,%rdi
  402387:	b8 00 00 00 00       	mov    $0x0,%eax
  40238c:	e8 0f eb ff ff       	callq  400ea0 <__sprintf_chk@plt>
  402391:	0f b6 04 24          	movzbl (%rsp),%eax
  402395:	88 45 00             	mov    %al,0x0(%rbp)
  402398:	0f b6 44 24 01       	movzbl 0x1(%rsp),%eax
  40239d:	88 45 01             	mov    %al,0x1(%rbp)
  4023a0:	0f b6 44 24 02       	movzbl 0x2(%rsp),%eax
  4023a5:	88 45 02             	mov    %al,0x2(%rbp)
  4023a8:	48 8d 6d 03          	lea    0x3(%rbp),%rbp
  4023ac:	48 83 c3 01          	add    $0x1,%rbx
  4023b0:	44 89 e0             	mov    %r12d,%eax
  4023b3:	44 8d 60 ff          	lea    -0x1(%rax),%r12d
  4023b7:	85 c0                	test   %eax,%eax
  4023b9:	0f 85 4a ff ff ff    	jne    402309 <urlencode+0x32>
  4023bf:	eb 05                	jmp    4023c6 <urlencode+0xef>
  4023c1:	b8 ff ff ff ff       	mov    $0xffffffff,%eax
  4023c6:	48 8b 74 24 08       	mov    0x8(%rsp),%rsi
  4023cb:	64 48 33 34 25 28 00 	xor    %fs:0x28,%rsi
  4023d2:	00 00 
  4023d4:	74 05                	je     4023db <urlencode+0x104>
  4023d6:	e8 25 e9 ff ff       	callq  400d00 <__stack_chk_fail@plt>
  4023db:	48 83 c4 10          	add    $0x10,%rsp
  4023df:	5b                   	pop    %rbx
  4023e0:	5d                   	pop    %rbp
  4023e1:	41 5c                	pop    %r12
  4023e3:	c3                   	retq   

00000000004023e4 <submitr>:
  4023e4:	41 57                	push   %r15
  4023e6:	41 56                	push   %r14
  4023e8:	41 55                	push   %r13
  4023ea:	41 54                	push   %r12
  4023ec:	55                   	push   %rbp
  4023ed:	53                   	push   %rbx
  4023ee:	48 81 ec 68 a0 00 00 	sub    $0xa068,%rsp
  4023f5:	49 89 fc             	mov    %rdi,%r12
  4023f8:	89 74 24 14          	mov    %esi,0x14(%rsp)
  4023fc:	49 89 d7             	mov    %rdx,%r15
  4023ff:	49 89 ce             	mov    %rcx,%r14
  402402:	4c 89 44 24 18       	mov    %r8,0x18(%rsp)
  402407:	4d 89 cd             	mov    %r9,%r13
  40240a:	48 8b 9c 24 a0 a0 00 	mov    0xa0a0(%rsp),%rbx
  402411:	00 
  402412:	64 48 8b 04 25 28 00 	mov    %fs:0x28,%rax
  402419:	00 00 
  40241b:	48 89 84 24 58 a0 00 	mov    %rax,0xa058(%rsp)
  402422:	00 
  402423:	31 c0                	xor    %eax,%eax
  402425:	c7 44 24 2c 00 00 00 	movl   $0x0,0x2c(%rsp)
  40242c:	00 
  40242d:	ba 00 00 00 00       	mov    $0x0,%edx
  402432:	be 01 00 00 00       	mov    $0x1,%esi
  402437:	bf 02 00 00 00       	mov    $0x2,%edi
  40243c:	e8 6f ea ff ff       	callq  400eb0 <socket@plt>
  402441:	89 c5                	mov    %eax,%ebp
  402443:	85 c0                	test   %eax,%eax
  402445:	79 4e                	jns    402495 <submitr+0xb1>
  402447:	48 b8 45 72 72 6f 72 	movabs $0x43203a726f727245,%rax
  40244e:	3a 20 43 
  402451:	48 89 03             	mov    %rax,(%rbx)
  402454:	48 b8 6c 69 65 6e 74 	movabs $0x6e7520746e65696c,%rax
  40245b:	20 75 6e 
  40245e:	48 89 43 08          	mov    %rax,0x8(%rbx)
  402462:	48 b8 61 62 6c 65 20 	movabs $0x206f7420656c6261,%rax
  402469:	74 6f 20 
  40246c:	48 89 43 10          	mov    %rax,0x10(%rbx)
  402470:	48 b8 63 72 65 61 74 	movabs $0x7320657461657263,%rax
  402477:	65 20 73 
  40247a:	48 89 43 18          	mov    %rax,0x18(%rbx)
  40247e:	c7 43 20 6f 63 6b 65 	movl   $0x656b636f,0x20(%rbx)
  402485:	66 c7 43 24 74 00    	movw   $0x74,0x24(%rbx)
  40248b:	b8 ff ff ff ff       	mov    $0xffffffff,%eax
  402490:	e9 84 06 00 00       	jmpq   402b19 <submitr+0x735>
  402495:	4c 89 e7             	mov    %r12,%rdi
  402498:	e8 e3 e8 ff ff       	callq  400d80 <gethostbyname@plt>
  40249d:	48 85 c0             	test   %rax,%rax
  4024a0:	75 67                	jne    402509 <submitr+0x125>
  4024a2:	48 b8 45 72 72 6f 72 	movabs $0x44203a726f727245,%rax
  4024a9:	3a 20 44 
  4024ac:	48 89 03             	mov    %rax,(%rbx)
  4024af:	48 b8 4e 53 20 69 73 	movabs $0x6e7520736920534e,%rax
  4024b6:	20 75 6e 
  4024b9:	48 89 43 08          	mov    %rax,0x8(%rbx)
  4024bd:	48 b8 61 62 6c 65 20 	movabs $0x206f7420656c6261,%rax
  4024c4:	74 6f 20 
  4024c7:	48 89 43 10          	mov    %rax,0x10(%rbx)
  4024cb:	48 b8 72 65 73 6f 6c 	movabs $0x2065766c6f736572,%rax
  4024d2:	76 65 20 
  4024d5:	48 89 43 18          	mov    %rax,0x18(%rbx)
  4024d9:	48 b8 73 65 72 76 65 	movabs $0x6120726576726573,%rax
  4024e0:	72 20 61 
  4024e3:	48 89 43 20          	mov    %rax,0x20(%rbx)
  4024e7:	c7 43 28 64 64 72 65 	movl   $0x65726464,0x28(%rbx)
  4024ee:	66 c7 43 2c 73 73    	movw   $0x7373,0x2c(%rbx)
  4024f4:	c6 43 2e 00          	movb   $0x0,0x2e(%rbx)
  4024f8:	89 ef                	mov    %ebp,%edi
  4024fa:	e8 41 e8 ff ff       	callq  400d40 <close@plt>
  4024ff:	b8 ff ff ff ff       	mov    $0xffffffff,%eax
  402504:	e9 10 06 00 00       	jmpq   402b19 <submitr+0x735>
  402509:	48 c7 44 24 30 00 00 	movq   $0x0,0x30(%rsp)
  402510:	00 00 
  402512:	48 c7 44 24 38 00 00 	movq   $0x0,0x38(%rsp)
  402519:	00 00 
  40251b:	66 c7 44 24 30 02 00 	movw   $0x2,0x30(%rsp)
  402522:	48 63 50 14          	movslq 0x14(%rax),%rdx
  402526:	48 8b 40 18          	mov    0x18(%rax),%rax
  40252a:	48 8b 30             	mov    (%rax),%rsi
  40252d:	48 8d 7c 24 34       	lea    0x34(%rsp),%rdi
  402532:	b9 0c 00 00 00       	mov    $0xc,%ecx
  402537:	e8 54 e8 ff ff       	callq  400d90 <__memmove_chk@plt>
  40253c:	0f b7 44 24 14       	movzwl 0x14(%rsp),%eax
  402541:	66 c1 c8 08          	ror    $0x8,%ax
  402545:	66 89 44 24 32       	mov    %ax,0x32(%rsp)
  40254a:	ba 10 00 00 00       	mov    $0x10,%edx
  40254f:	48 8d 74 24 30       	lea    0x30(%rsp),%rsi
  402554:	89 ef                	mov    %ebp,%edi
  402556:	e8 25 e9 ff ff       	callq  400e80 <connect@plt>
  40255b:	85 c0                	test   %eax,%eax
  40255d:	79 59                	jns    4025b8 <submitr+0x1d4>
  40255f:	48 b8 45 72 72 6f 72 	movabs $0x55203a726f727245,%rax
  402566:	3a 20 55 
  402569:	48 89 03             	mov    %rax,(%rbx)
  40256c:	48 b8 6e 61 62 6c 65 	movabs $0x6f7420656c62616e,%rax
  402573:	20 74 6f 
  402576:	48 89 43 08          	mov    %rax,0x8(%rbx)
  40257a:	48 b8 20 63 6f 6e 6e 	movabs $0x7463656e6e6f6320,%rax
  402581:	65 63 74 
  402584:	48 89 43 10          	mov    %rax,0x10(%rbx)
  402588:	48 b8 20 74 6f 20 74 	movabs $0x20656874206f7420,%rax
  40258f:	68 65 20 
  402592:	48 89 43 18          	mov    %rax,0x18(%rbx)
  402596:	c7 43 20 73 65 72 76 	movl   $0x76726573,0x20(%rbx)
  40259d:	66 c7 43 24 65 72    	movw   $0x7265,0x24(%rbx)
  4025a3:	c6 43 26 00          	movb   $0x0,0x26(%rbx)
  4025a7:	89 ef                	mov    %ebp,%edi
  4025a9:	e8 92 e7 ff ff       	callq  400d40 <close@plt>
  4025ae:	b8 ff ff ff ff       	mov    $0xffffffff,%eax
  4025b3:	e9 61 05 00 00       	jmpq   402b19 <submitr+0x735>
  4025b8:	48 c7 c2 ff ff ff ff 	mov    $0xffffffffffffffff,%rdx
  4025bf:	4c 89 ef             	mov    %r13,%rdi
  4025c2:	b8 00 00 00 00       	mov    $0x0,%eax
  4025c7:	48 89 d1             	mov    %rdx,%rcx
  4025ca:	f2 ae                	repnz scas %es:(%rdi),%al
  4025cc:	48 f7 d1             	not    %rcx
  4025cf:	48 89 ce             	mov    %rcx,%rsi
  4025d2:	4c 89 ff             	mov    %r15,%rdi
  4025d5:	48 89 d1             	mov    %rdx,%rcx
  4025d8:	f2 ae                	repnz scas %es:(%rdi),%al
  4025da:	48 f7 d1             	not    %rcx
  4025dd:	49 89 c8             	mov    %rcx,%r8
  4025e0:	4c 89 f7             	mov    %r14,%rdi
  4025e3:	48 89 d1             	mov    %rdx,%rcx
  4025e6:	f2 ae                	repnz scas %es:(%rdi),%al
  4025e8:	49 29 c8             	sub    %rcx,%r8
  4025eb:	48 8b 7c 24 18       	mov    0x18(%rsp),%rdi
  4025f0:	48 89 d1             	mov    %rdx,%rcx
  4025f3:	f2 ae                	repnz scas %es:(%rdi),%al
  4025f5:	49 29 c8             	sub    %rcx,%r8
  4025f8:	48 8d 44 76 fd       	lea    -0x3(%rsi,%rsi,2),%rax
  4025fd:	49 8d 44 00 7b       	lea    0x7b(%r8,%rax,1),%rax
  402602:	48 3d 00 20 00 00    	cmp    $0x2000,%rax
  402608:	76 72                	jbe    40267c <submitr+0x298>
  40260a:	48 b8 45 72 72 6f 72 	movabs $0x52203a726f727245,%rax
  402611:	3a 20 52 
  402614:	48 89 03             	mov    %rax,(%rbx)
  402617:	48 b8 65 73 75 6c 74 	movabs $0x747320746c757365,%rax
  40261e:	20 73 74 
  402621:	48 89 43 08          	mov    %rax,0x8(%rbx)
  402625:	48 b8 72 69 6e 67 20 	movabs $0x6f6f7420676e6972,%rax
  40262c:	74 6f 6f 
  40262f:	48 89 43 10          	mov    %rax,0x10(%rbx)
  402633:	48 b8 20 6c 61 72 67 	movabs $0x202e656772616c20,%rax
  40263a:	65 2e 20 
  40263d:	48 89 43 18          	mov    %rax,0x18(%rbx)
  402641:	48 b8 49 6e 63 72 65 	movabs $0x6573616572636e49,%rax
  402648:	61 73 65 
  40264b:	48 89 43 20          	mov    %rax,0x20(%rbx)
  40264f:	48 b8 20 53 55 42 4d 	movabs $0x5254494d42555320,%rax
  402656:	49 54 52 
  402659:	48 89 43 28          	mov    %rax,0x28(%rbx)
  40265d:	48 b8 5f 4d 41 58 42 	movabs $0x46554258414d5f,%rax
  402664:	55 46 00 
  402667:	48 89 43 30          	mov    %rax,0x30(%rbx)
  40266b:	89 ef                	mov    %ebp,%edi
  40266d:	e8 ce e6 ff ff       	callq  400d40 <close@plt>
  402672:	b8 ff ff ff ff       	mov    $0xffffffff,%eax
  402677:	e9 9d 04 00 00       	jmpq   402b19 <submitr+0x735>
  40267c:	48 8d b4 24 40 20 00 	lea    0x2040(%rsp),%rsi
  402683:	00 
  402684:	b9 00 04 00 00       	mov    $0x400,%ecx
  402689:	b8 00 00 00 00       	mov    $0x0,%eax
  40268e:	48 89 f7             	mov    %rsi,%rdi
  402691:	f3 48 ab             	rep stos %rax,%es:(%rdi)
  402694:	4c 89 ef             	mov    %r13,%rdi
  402697:	e8 3b fc ff ff       	callq  4022d7 <urlencode>
  40269c:	85 c0                	test   %eax,%eax
  40269e:	0f 89 8a 00 00 00    	jns    40272e <submitr+0x34a>
  4026a4:	48 b8 45 72 72 6f 72 	movabs $0x52203a726f727245,%rax
  4026ab:	3a 20 52 
  4026ae:	48 89 03             	mov    %rax,(%rbx)
  4026b1:	48 b8 65 73 75 6c 74 	movabs $0x747320746c757365,%rax
  4026b8:	20 73 74 
  4026bb:	48 89 43 08          	mov    %rax,0x8(%rbx)
  4026bf:	48 b8 72 69 6e 67 20 	movabs $0x6e6f6320676e6972,%rax
  4026c6:	63 6f 6e 
  4026c9:	48 89 43 10          	mov    %rax,0x10(%rbx)
  4026cd:	48 b8 74 61 69 6e 73 	movabs $0x6e6120736e696174,%rax
  4026d4:	20 61 6e 
  4026d7:	48 89 43 18          	mov    %rax,0x18(%rbx)
  4026db:	48 b8 20 69 6c 6c 65 	movabs $0x6c6167656c6c6920,%rax
  4026e2:	67 61 6c 
  4026e5:	48 89 43 20          	mov    %rax,0x20(%rbx)
  4026e9:	48 b8 20 6f 72 20 75 	movabs $0x72706e7520726f20,%rax
  4026f0:	6e 70 72 
  4026f3:	48 89 43 28          	mov    %rax,0x28(%rbx)
  4026f7:	48 b8 69 6e 74 61 62 	movabs $0x20656c6261746e69,%rax
  4026fe:	6c 65 20 
  402701:	48 89 43 30          	mov    %rax,0x30(%rbx)
  402705:	48 b8 63 68 61 72 61 	movabs $0x6574636172616863,%rax
  40270c:	63 74 65 
  40270f:	48 89 43 38          	mov    %rax,0x38(%rbx)
  402713:	66 c7 43 40 72 2e    	movw   $0x2e72,0x40(%rbx)
  402719:	c6 43 42 00          	movb   $0x0,0x42(%rbx)
  40271d:	89 ef                	mov    %ebp,%edi
  40271f:	e8 1c e6 ff ff       	callq  400d40 <close@plt>
  402724:	b8 ff ff ff ff       	mov    $0xffffffff,%eax
  402729:	e9 eb 03 00 00       	jmpq   402b19 <submitr+0x735>
  40272e:	4c 89 64 24 08       	mov    %r12,0x8(%rsp)
  402733:	48 8d 84 24 40 20 00 	lea    0x2040(%rsp),%rax
  40273a:	00 
  40273b:	48 89 04 24          	mov    %rax,(%rsp)
  40273f:	4d 89 f9             	mov    %r15,%r9
  402742:	4d 89 f0             	mov    %r14,%r8
  402745:	b9 08 36 40 00       	mov    $0x403608,%ecx
  40274a:	ba 00 20 00 00       	mov    $0x2000,%edx
  40274f:	be 01 00 00 00       	mov    $0x1,%esi
  402754:	48 8d 7c 24 40       	lea    0x40(%rsp),%rdi
  402759:	b8 00 00 00 00       	mov    $0x0,%eax
  40275e:	e8 3d e7 ff ff       	callq  400ea0 <__sprintf_chk@plt>
  402763:	48 8d 7c 24 40       	lea    0x40(%rsp),%rdi
  402768:	b8 00 00 00 00       	mov    $0x0,%eax
  40276d:	48 c7 c1 ff ff ff ff 	mov    $0xffffffffffffffff,%rcx
  402774:	f2 ae                	repnz scas %es:(%rdi),%al
  402776:	48 f7 d1             	not    %rcx
  402779:	48 8d 51 ff          	lea    -0x1(%rcx),%rdx
  40277d:	48 8d 74 24 40       	lea    0x40(%rsp),%rsi
  402782:	89 ef                	mov    %ebp,%edi
  402784:	e8 e7 f9 ff ff       	callq  402170 <rio_writen>
  402789:	48 85 c0             	test   %rax,%rax
  40278c:	79 6e                	jns    4027fc <submitr+0x418>
  40278e:	48 b8 45 72 72 6f 72 	movabs $0x43203a726f727245,%rax
  402795:	3a 20 43 
  402798:	48 89 03             	mov    %rax,(%rbx)
  40279b:	48 b8 6c 69 65 6e 74 	movabs $0x6e7520746e65696c,%rax
  4027a2:	20 75 6e 
  4027a5:	48 89 43 08          	mov    %rax,0x8(%rbx)
  4027a9:	48 b8 61 62 6c 65 20 	movabs $0x206f7420656c6261,%rax
  4027b0:	74 6f 20 
  4027b3:	48 89 43 10          	mov    %rax,0x10(%rbx)
  4027b7:	48 b8 77 72 69 74 65 	movabs $0x6f74206574697277,%rax
  4027be:	20 74 6f 
  4027c1:	48 89 43 18          	mov    %rax,0x18(%rbx)
  4027c5:	48 b8 20 74 68 65 20 	movabs $0x7365722065687420,%rax
  4027cc:	72 65 73 
  4027cf:	48 89 43 20          	mov    %rax,0x20(%rbx)
  4027d3:	48 b8 75 6c 74 20 73 	movabs $0x7672657320746c75,%rax
  4027da:	65 72 76 
  4027dd:	48 89 43 28          	mov    %rax,0x28(%rbx)
  4027e1:	66 c7 43 30 65 72    	movw   $0x7265,0x30(%rbx)
  4027e7:	c6 43 32 00          	movb   $0x0,0x32(%rbx)
  4027eb:	89 ef                	mov    %ebp,%edi
  4027ed:	e8 4e e5 ff ff       	callq  400d40 <close@plt>
  4027f2:	b8 ff ff ff ff       	mov    $0xffffffff,%eax
  4027f7:	e9 1d 03 00 00       	jmpq   402b19 <submitr+0x735>
  4027fc:	89 ee                	mov    %ebp,%esi
  4027fe:	48 8d bc 24 40 80 00 	lea    0x8040(%rsp),%rdi
  402805:	00 
  402806:	e8 25 f9 ff ff       	callq  402130 <rio_readinitb>
  40280b:	ba 00 20 00 00       	mov    $0x2000,%edx
  402810:	48 8d 74 24 40       	lea    0x40(%rsp),%rsi
  402815:	48 8d bc 24 40 80 00 	lea    0x8040(%rsp),%rdi
  40281c:	00 
  40281d:	e8 31 fa ff ff       	callq  402253 <rio_readlineb>
  402822:	48 85 c0             	test   %rax,%rax
  402825:	7f 7d                	jg     4028a4 <submitr+0x4c0>
  402827:	48 b8 45 72 72 6f 72 	movabs $0x43203a726f727245,%rax
  40282e:	3a 20 43 
  402831:	48 89 03             	mov    %rax,(%rbx)
  402834:	48 b8 6c 69 65 6e 74 	movabs $0x6e7520746e65696c,%rax
  40283b:	20 75 6e 
  40283e:	48 89 43 08          	mov    %rax,0x8(%rbx)
  402842:	48 b8 61 62 6c 65 20 	movabs $0x206f7420656c6261,%rax
  402849:	74 6f 20 
  40284c:	48 89 43 10          	mov    %rax,0x10(%rbx)
  402850:	48 b8 72 65 61 64 20 	movabs $0x7269662064616572,%rax
  402857:	66 69 72 
  40285a:	48 89 43 18          	mov    %rax,0x18(%rbx)
  40285e:	48 b8 73 74 20 68 65 	movabs $0x6564616568207473,%rax
  402865:	61 64 65 
  402868:	48 89 43 20          	mov    %rax,0x20(%rbx)
  40286c:	48 b8 72 20 66 72 6f 	movabs $0x72206d6f72662072,%rax
  402873:	6d 20 72 
  402876:	48 89 43 28          	mov    %rax,0x28(%rbx)
  40287a:	48 b8 65 73 75 6c 74 	movabs $0x657320746c757365,%rax
  402881:	20 73 65 
  402884:	48 89 43 30          	mov    %rax,0x30(%rbx)
  402888:	c7 43 38 72 76 65 72 	movl   $0x72657672,0x38(%rbx)
  40288f:	c6 43 3c 00          	movb   $0x0,0x3c(%rbx)
  402893:	89 ef                	mov    %ebp,%edi
  402895:	e8 a6 e4 ff ff       	callq  400d40 <close@plt>
  40289a:	b8 ff ff ff ff       	mov    $0xffffffff,%eax
  40289f:	e9 75 02 00 00       	jmpq   402b19 <submitr+0x735>
  4028a4:	4c 8d 84 24 40 60 00 	lea    0x6040(%rsp),%r8
  4028ab:	00 
  4028ac:	48 8d 4c 24 2c       	lea    0x2c(%rsp),%rcx
  4028b1:	48 8d 94 24 40 40 00 	lea    0x4040(%rsp),%rdx
  4028b8:	00 
  4028b9:	be 7f 36 40 00       	mov    $0x40367f,%esi
  4028be:	48 8d 7c 24 40       	lea    0x40(%rsp),%rdi
  4028c3:	b8 00 00 00 00       	mov    $0x0,%eax
  4028c8:	e8 33 e5 ff ff       	callq  400e00 <__isoc99_sscanf@plt>
  4028cd:	41 bc 0d 00 00 00    	mov    $0xd,%r12d
  4028d3:	41 bd 0a 00 00 00    	mov    $0xa,%r13d
  4028d9:	e9 95 00 00 00       	jmpq   402973 <submitr+0x58f>
  4028de:	ba 00 20 00 00       	mov    $0x2000,%edx
  4028e3:	48 8d 74 24 40       	lea    0x40(%rsp),%rsi
  4028e8:	48 8d bc 24 40 80 00 	lea    0x8040(%rsp),%rdi
  4028ef:	00 
  4028f0:	e8 5e f9 ff ff       	callq  402253 <rio_readlineb>
  4028f5:	48 85 c0             	test   %rax,%rax
  4028f8:	7f 79                	jg     402973 <submitr+0x58f>
  4028fa:	48 b8 45 72 72 6f 72 	movabs $0x43203a726f727245,%rax
  402901:	3a 20 43 
  402904:	48 89 03             	mov    %rax,(%rbx)
  402907:	48 b8 6c 69 65 6e 74 	movabs $0x6e7520746e65696c,%rax
  40290e:	20 75 6e 
  402911:	48 89 43 08          	mov    %rax,0x8(%rbx)
  402915:	48 b8 61 62 6c 65 20 	movabs $0x206f7420656c6261,%rax
  40291c:	74 6f 20 
  40291f:	48 89 43 10          	mov    %rax,0x10(%rbx)
  402923:	48 b8 72 65 61 64 20 	movabs $0x6165682064616572,%rax
  40292a:	68 65 61 
  40292d:	48 89 43 18          	mov    %rax,0x18(%rbx)
  402931:	48 b8 64 65 72 73 20 	movabs $0x6f72662073726564,%rax
  402938:	66 72 6f 
  40293b:	48 89 43 20          	mov    %rax,0x20(%rbx)
  40293f:	48 b8 6d 20 74 68 65 	movabs $0x657220656874206d,%rax
  402946:	20 72 65 
  402949:	48 89 43 28          	mov    %rax,0x28(%rbx)
  40294d:	48 b8 73 75 6c 74 20 	movabs $0x72657320746c7573,%rax
  402954:	73 65 72 
  402957:	48 89 43 30          	mov    %rax,0x30(%rbx)
  40295b:	c7 43 38 76 65 72 00 	movl   $0x726576,0x38(%rbx)
  402962:	89 ef                	mov    %ebp,%edi
  402964:	e8 d7 e3 ff ff       	callq  400d40 <close@plt>
  402969:	b8 ff ff ff ff       	mov    $0xffffffff,%eax
  40296e:	e9 a6 01 00 00       	jmpq   402b19 <submitr+0x735>
  402973:	0f b6 44 24 40       	movzbl 0x40(%rsp),%eax
  402978:	44 89 e6             	mov    %r12d,%esi
  40297b:	29 c6                	sub    %eax,%esi
  40297d:	89 f0                	mov    %esi,%eax
  40297f:	75 15                	jne    402996 <submitr+0x5b2>
  402981:	0f b6 44 24 41       	movzbl 0x41(%rsp),%eax
  402986:	44 89 ea             	mov    %r13d,%edx
  402989:	29 c2                	sub    %eax,%edx
  40298b:	89 d0                	mov    %edx,%eax
  40298d:	75 07                	jne    402996 <submitr+0x5b2>
  40298f:	0f b6 44 24 42       	movzbl 0x42(%rsp),%eax
  402994:	f7 d8                	neg    %eax
  402996:	85 c0                	test   %eax,%eax
  402998:	0f 85 40 ff ff ff    	jne    4028de <submitr+0x4fa>
  40299e:	ba 00 20 00 00       	mov    $0x2000,%edx
  4029a3:	48 8d 74 24 40       	lea    0x40(%rsp),%rsi
  4029a8:	48 8d bc 24 40 80 00 	lea    0x8040(%rsp),%rdi
  4029af:	00 
  4029b0:	e8 9e f8 ff ff       	callq  402253 <rio_readlineb>
  4029b5:	48 85 c0             	test   %rax,%rax
  4029b8:	0f 8f 83 00 00 00    	jg     402a41 <submitr+0x65d>
  4029be:	48 b8 45 72 72 6f 72 	movabs $0x43203a726f727245,%rax
  4029c5:	3a 20 43 
  4029c8:	48 89 03             	mov    %rax,(%rbx)
  4029cb:	48 b8 6c 69 65 6e 74 	movabs $0x6e7520746e65696c,%rax
  4029d2:	20 75 6e 
  4029d5:	48 89 43 08          	mov    %rax,0x8(%rbx)
  4029d9:	48 b8 61 62 6c 65 20 	movabs $0x206f7420656c6261,%rax
  4029e0:	74 6f 20 
  4029e3:	48 89 43 10          	mov    %rax,0x10(%rbx)
  4029e7:	48 b8 72 65 61 64 20 	movabs $0x6174732064616572,%rax
  4029ee:	73 74 61 
  4029f1:	48 89 43 18          	mov    %rax,0x18(%rbx)
  4029f5:	48 b8 74 75 73 20 6d 	movabs $0x7373656d20737574,%rax
  4029fc:	65 73 73 
  4029ff:	48 89 43 20          	mov    %rax,0x20(%rbx)
  402a03:	48 b8 61 67 65 20 66 	movabs $0x6d6f726620656761,%rax
  402a0a:	72 6f 6d 
  402a0d:	48 89 43 28          	mov    %rax,0x28(%rbx)
  402a11:	48 b8 20 72 65 73 75 	movabs $0x20746c7573657220,%rax
  402a18:	6c 74 20 
  402a1b:	48 89 43 30          	mov    %rax,0x30(%rbx)
  402a1f:	c7 43 38 73 65 72 76 	movl   $0x76726573,0x38(%rbx)
  402a26:	66 c7 43 3c 65 72    	movw   $0x7265,0x3c(%rbx)
  402a2c:	c6 43 3e 00          	movb   $0x0,0x3e(%rbx)
  402a30:	89 ef                	mov    %ebp,%edi
  402a32:	e8 09 e3 ff ff       	callq  400d40 <close@plt>
  402a37:	b8 ff ff ff ff       	mov    $0xffffffff,%eax
  402a3c:	e9 d8 00 00 00       	jmpq   402b19 <submitr+0x735>
  402a41:	44 8b 44 24 2c       	mov    0x2c(%rsp),%r8d
  402a46:	41 81 f8 c8 00 00 00 	cmp    $0xc8,%r8d
  402a4d:	74 37                	je     402a86 <submitr+0x6a2>
  402a4f:	4c 8d 8c 24 40 60 00 	lea    0x6040(%rsp),%r9
  402a56:	00 
  402a57:	b9 48 36 40 00       	mov    $0x403648,%ecx
  402a5c:	48 c7 c2 ff ff ff ff 	mov    $0xffffffffffffffff,%rdx
  402a63:	be 01 00 00 00       	mov    $0x1,%esi
  402a68:	48 89 df             	mov    %rbx,%rdi
  402a6b:	b8 00 00 00 00       	mov    $0x0,%eax
  402a70:	e8 2b e4 ff ff       	callq  400ea0 <__sprintf_chk@plt>
  402a75:	89 ef                	mov    %ebp,%edi
  402a77:	e8 c4 e2 ff ff       	callq  400d40 <close@plt>
  402a7c:	b8 ff ff ff ff       	mov    $0xffffffff,%eax
  402a81:	e9 93 00 00 00       	jmpq   402b19 <submitr+0x735>
  402a86:	48 8d 74 24 40       	lea    0x40(%rsp),%rsi
  402a8b:	48 89 df             	mov    %rbx,%rdi
  402a8e:	e8 3d e2 ff ff       	callq  400cd0 <strcpy@plt>
  402a93:	89 ef                	mov    %ebp,%edi
  402a95:	e8 a6 e2 ff ff       	callq  400d40 <close@plt>
  402a9a:	0f b6 03             	movzbl (%rbx),%eax
  402a9d:	ba 4f 00 00 00       	mov    $0x4f,%edx
  402aa2:	29 c2                	sub    %eax,%edx
  402aa4:	75 22                	jne    402ac8 <submitr+0x6e4>
  402aa6:	0f b6 4b 01          	movzbl 0x1(%rbx),%ecx
  402aaa:	b8 4b 00 00 00       	mov    $0x4b,%eax
  402aaf:	29 c8                	sub    %ecx,%eax
  402ab1:	75 17                	jne    402aca <submitr+0x6e6>
  402ab3:	0f b6 4b 02          	movzbl 0x2(%rbx),%ecx
  402ab7:	b8 0a 00 00 00       	mov    $0xa,%eax
  402abc:	29 c8                	sub    %ecx,%eax
  402abe:	75 0a                	jne    402aca <submitr+0x6e6>
  402ac0:	0f b6 43 03          	movzbl 0x3(%rbx),%eax
  402ac4:	f7 d8                	neg    %eax
  402ac6:	eb 02                	jmp    402aca <submitr+0x6e6>
  402ac8:	89 d0                	mov    %edx,%eax
  402aca:	85 c0                	test   %eax,%eax
  402acc:	74 38                	je     402b06 <submitr+0x722>
  402ace:	bf 90 36 40 00       	mov    $0x403690,%edi
  402ad3:	b9 05 00 00 00       	mov    $0x5,%ecx
  402ad8:	48 89 de             	mov    %rbx,%rsi
  402adb:	f3 a6                	repz cmpsb %es:(%rdi),%ds:(%rsi)
  402add:	0f 97 c1             	seta   %cl
  402ae0:	0f 92 c0             	setb   %al
  402ae3:	38 c1                	cmp    %al,%cl
  402ae5:	74 26                	je     402b0d <submitr+0x729>
  402ae7:	85 d2                	test   %edx,%edx
  402ae9:	75 10                	jne    402afb <submitr+0x717>
  402aeb:	0f b6 43 01          	movzbl 0x1(%rbx),%eax
  402aef:	b2 4b                	mov    $0x4b,%dl
  402af1:	29 c2                	sub    %eax,%edx
  402af3:	75 06                	jne    402afb <submitr+0x717>
  402af5:	0f b6 53 02          	movzbl 0x2(%rbx),%edx
  402af9:	f7 da                	neg    %edx
  402afb:	85 d2                	test   %edx,%edx
  402afd:	75 15                	jne    402b14 <submitr+0x730>
  402aff:	b8 00 00 00 00       	mov    $0x0,%eax
  402b04:	eb 13                	jmp    402b19 <submitr+0x735>
  402b06:	b8 00 00 00 00       	mov    $0x0,%eax
  402b0b:	eb 0c                	jmp    402b19 <submitr+0x735>
  402b0d:	b8 00 00 00 00       	mov    $0x0,%eax
  402b12:	eb 05                	jmp    402b19 <submitr+0x735>
  402b14:	b8 ff ff ff ff       	mov    $0xffffffff,%eax
  402b19:	48 8b 9c 24 58 a0 00 	mov    0xa058(%rsp),%rbx
  402b20:	00 
  402b21:	64 48 33 1c 25 28 00 	xor    %fs:0x28,%rbx
  402b28:	00 00 
  402b2a:	74 05                	je     402b31 <submitr+0x74d>
  402b2c:	e8 cf e1 ff ff       	callq  400d00 <__stack_chk_fail@plt>
  402b31:	48 81 c4 68 a0 00 00 	add    $0xa068,%rsp
  402b38:	5b                   	pop    %rbx
  402b39:	5d                   	pop    %rbp
  402b3a:	41 5c                	pop    %r12
  402b3c:	41 5d                	pop    %r13
  402b3e:	41 5e                	pop    %r14
  402b40:	41 5f                	pop    %r15
  402b42:	c3                   	retq   

0000000000402b43 <init_timeout>:
  402b43:	53                   	push   %rbx
  402b44:	89 fb                	mov    %edi,%ebx
  402b46:	85 ff                	test   %edi,%edi
  402b48:	74 1f                	je     402b69 <init_timeout+0x26>
  402b4a:	85 ff                	test   %edi,%edi
  402b4c:	79 05                	jns    402b53 <init_timeout+0x10>
  402b4e:	bb 00 00 00 00       	mov    $0x0,%ebx
  402b53:	be 42 21 40 00       	mov    $0x402142,%esi
  402b58:	bf 0e 00 00 00       	mov    $0xe,%edi
  402b5d:	e8 0e e2 ff ff       	callq  400d70 <signal@plt>
  402b62:	89 df                	mov    %ebx,%edi
  402b64:	e8 c7 e1 ff ff       	callq  400d30 <alarm@plt>
  402b69:	5b                   	pop    %rbx
  402b6a:	c3                   	retq   

0000000000402b6b <init_driver>:
  402b6b:	55                   	push   %rbp
  402b6c:	53                   	push   %rbx
  402b6d:	48 83 ec 28          	sub    $0x28,%rsp
  402b71:	48 89 fd             	mov    %rdi,%rbp
  402b74:	64 48 8b 04 25 28 00 	mov    %fs:0x28,%rax
  402b7b:	00 00 
  402b7d:	48 89 44 24 18       	mov    %rax,0x18(%rsp)
  402b82:	31 c0                	xor    %eax,%eax
  402b84:	be 01 00 00 00       	mov    $0x1,%esi
  402b89:	bf 0d 00 00 00       	mov    $0xd,%edi
  402b8e:	e8 dd e1 ff ff       	callq  400d70 <signal@plt>
  402b93:	be 01 00 00 00       	mov    $0x1,%esi
  402b98:	bf 1d 00 00 00       	mov    $0x1d,%edi
  402b9d:	e8 ce e1 ff ff       	callq  400d70 <signal@plt>
  402ba2:	be 01 00 00 00       	mov    $0x1,%esi
  402ba7:	bf 1d 00 00 00       	mov    $0x1d,%edi
  402bac:	e8 bf e1 ff ff       	callq  400d70 <signal@plt>
  402bb1:	ba 00 00 00 00       	mov    $0x0,%edx
  402bb6:	be 01 00 00 00       	mov    $0x1,%esi
  402bbb:	bf 02 00 00 00       	mov    $0x2,%edi
  402bc0:	e8 eb e2 ff ff       	callq  400eb0 <socket@plt>
  402bc5:	89 c3                	mov    %eax,%ebx
  402bc7:	85 c0                	test   %eax,%eax
  402bc9:	79 4f                	jns    402c1a <init_driver+0xaf>
  402bcb:	48 b8 45 72 72 6f 72 	movabs $0x43203a726f727245,%rax
  402bd2:	3a 20 43 
  402bd5:	48 89 45 00          	mov    %rax,0x0(%rbp)
  402bd9:	48 b8 6c 69 65 6e 74 	movabs $0x6e7520746e65696c,%rax
  402be0:	20 75 6e 
  402be3:	48 89 45 08          	mov    %rax,0x8(%rbp)
  402be7:	48 b8 61 62 6c 65 20 	movabs $0x206f7420656c6261,%rax
  402bee:	74 6f 20 
  402bf1:	48 89 45 10          	mov    %rax,0x10(%rbp)
  402bf5:	48 b8 63 72 65 61 74 	movabs $0x7320657461657263,%rax
  402bfc:	65 20 73 
  402bff:	48 89 45 18          	mov    %rax,0x18(%rbp)
  402c03:	c7 45 20 6f 63 6b 65 	movl   $0x656b636f,0x20(%rbp)
  402c0a:	66 c7 45 24 74 00    	movw   $0x74,0x24(%rbp)
  402c10:	b8 ff ff ff ff       	mov    $0xffffffff,%eax
  402c15:	e9 28 01 00 00       	jmpq   402d42 <init_driver+0x1d7>
  402c1a:	bf cf 31 40 00       	mov    $0x4031cf,%edi
  402c1f:	e8 5c e1 ff ff       	callq  400d80 <gethostbyname@plt>
  402c24:	48 85 c0             	test   %rax,%rax
  402c27:	75 68                	jne    402c91 <init_driver+0x126>
  402c29:	48 b8 45 72 72 6f 72 	movabs $0x44203a726f727245,%rax
  402c30:	3a 20 44 
  402c33:	48 89 45 00          	mov    %rax,0x0(%rbp)
  402c37:	48 b8 4e 53 20 69 73 	movabs $0x6e7520736920534e,%rax
  402c3e:	20 75 6e 
  402c41:	48 89 45 08          	mov    %rax,0x8(%rbp)
  402c45:	48 b8 61 62 6c 65 20 	movabs $0x206f7420656c6261,%rax
  402c4c:	74 6f 20 
  402c4f:	48 89 45 10          	mov    %rax,0x10(%rbp)
  402c53:	48 b8 72 65 73 6f 6c 	movabs $0x2065766c6f736572,%rax
  402c5a:	76 65 20 
  402c5d:	48 89 45 18          	mov    %rax,0x18(%rbp)
  402c61:	48 b8 73 65 72 76 65 	movabs $0x6120726576726573,%rax
  402c68:	72 20 61 
  402c6b:	48 89 45 20          	mov    %rax,0x20(%rbp)
  402c6f:	c7 45 28 64 64 72 65 	movl   $0x65726464,0x28(%rbp)
  402c76:	66 c7 45 2c 73 73    	movw   $0x7373,0x2c(%rbp)
  402c7c:	c6 45 2e 00          	movb   $0x0,0x2e(%rbp)
  402c80:	89 df                	mov    %ebx,%edi
  402c82:	e8 b9 e0 ff ff       	callq  400d40 <close@plt>
  402c87:	b8 ff ff ff ff       	mov    $0xffffffff,%eax
  402c8c:	e9 b1 00 00 00       	jmpq   402d42 <init_driver+0x1d7>
  402c91:	48 c7 04 24 00 00 00 	movq   $0x0,(%rsp)
  402c98:	00 
  402c99:	48 c7 44 24 08 00 00 	movq   $0x0,0x8(%rsp)
  402ca0:	00 00 
  402ca2:	66 c7 04 24 02 00    	movw   $0x2,(%rsp)
  402ca8:	48 63 50 14          	movslq 0x14(%rax),%rdx
  402cac:	48 8b 40 18          	mov    0x18(%rax),%rax
  402cb0:	48 8b 30             	mov    (%rax),%rsi
  402cb3:	48 8d 7c 24 04       	lea    0x4(%rsp),%rdi
  402cb8:	b9 0c 00 00 00       	mov    $0xc,%ecx
  402cbd:	e8 ce e0 ff ff       	callq  400d90 <__memmove_chk@plt>
  402cc2:	66 c7 44 24 02 4e f3 	movw   $0xf34e,0x2(%rsp)
  402cc9:	ba 10 00 00 00       	mov    $0x10,%edx
  402cce:	48 89 e6             	mov    %rsp,%rsi
  402cd1:	89 df                	mov    %ebx,%edi
  402cd3:	e8 a8 e1 ff ff       	callq  400e80 <connect@plt>
  402cd8:	85 c0                	test   %eax,%eax
  402cda:	79 50                	jns    402d2c <init_driver+0x1c1>
  402cdc:	48 b8 45 72 72 6f 72 	movabs $0x55203a726f727245,%rax
  402ce3:	3a 20 55 
  402ce6:	48 89 45 00          	mov    %rax,0x0(%rbp)
  402cea:	48 b8 6e 61 62 6c 65 	movabs $0x6f7420656c62616e,%rax
  402cf1:	20 74 6f 
  402cf4:	48 89 45 08          	mov    %rax,0x8(%rbp)
  402cf8:	48 b8 20 63 6f 6e 6e 	movabs $0x7463656e6e6f6320,%rax
  402cff:	65 63 74 
  402d02:	48 89 45 10          	mov    %rax,0x10(%rbp)
  402d06:	48 b8 20 74 6f 20 73 	movabs $0x76726573206f7420,%rax
  402d0d:	65 72 76 
  402d10:	48 89 45 18          	mov    %rax,0x18(%rbp)
  402d14:	66 c7 45 20 65 72    	movw   $0x7265,0x20(%rbp)
  402d1a:	c6 45 22 00          	movb   $0x0,0x22(%rbp)
  402d1e:	89 df                	mov    %ebx,%edi
  402d20:	e8 1b e0 ff ff       	callq  400d40 <close@plt>
  402d25:	b8 ff ff ff ff       	mov    $0xffffffff,%eax
  402d2a:	eb 16                	jmp    402d42 <init_driver+0x1d7>
  402d2c:	89 df                	mov    %ebx,%edi
  402d2e:	e8 0d e0 ff ff       	callq  400d40 <close@plt>
  402d33:	66 c7 45 00 4f 4b    	movw   $0x4b4f,0x0(%rbp)
  402d39:	c6 45 02 00          	movb   $0x0,0x2(%rbp)
  402d3d:	b8 00 00 00 00       	mov    $0x0,%eax
  402d42:	48 8b 4c 24 18       	mov    0x18(%rsp),%rcx
  402d47:	64 48 33 0c 25 28 00 	xor    %fs:0x28,%rcx
  402d4e:	00 00 
  402d50:	74 05                	je     402d57 <init_driver+0x1ec>
  402d52:	e8 a9 df ff ff       	callq  400d00 <__stack_chk_fail@plt>
  402d57:	48 83 c4 28          	add    $0x28,%rsp
  402d5b:	5b                   	pop    %rbx
  402d5c:	5d                   	pop    %rbp
  402d5d:	c3                   	retq   

0000000000402d5e <driver_post>:
  402d5e:	53                   	push   %rbx
  402d5f:	48 83 ec 10          	sub    $0x10,%rsp
  402d63:	4c 89 cb             	mov    %r9,%rbx
  402d66:	45 85 c0             	test   %r8d,%r8d
  402d69:	74 27                	je     402d92 <driver_post+0x34>
  402d6b:	48 89 ca             	mov    %rcx,%rdx
  402d6e:	be 95 36 40 00       	mov    $0x403695,%esi
  402d73:	bf 01 00 00 00       	mov    $0x1,%edi
  402d78:	b8 00 00 00 00       	mov    $0x0,%eax
  402d7d:	e8 9e e0 ff ff       	callq  400e20 <__printf_chk@plt>
  402d82:	66 c7 03 4f 4b       	movw   $0x4b4f,(%rbx)
  402d87:	c6 43 02 00          	movb   $0x0,0x2(%rbx)
  402d8b:	b8 00 00 00 00       	mov    $0x0,%eax
  402d90:	eb 39                	jmp    402dcb <driver_post+0x6d>
  402d92:	48 85 ff             	test   %rdi,%rdi
  402d95:	74 26                	je     402dbd <driver_post+0x5f>
  402d97:	80 3f 00             	cmpb   $0x0,(%rdi)
  402d9a:	74 21                	je     402dbd <driver_post+0x5f>
  402d9c:	4c 89 0c 24          	mov    %r9,(%rsp)
  402da0:	49 89 c9             	mov    %rcx,%r9
  402da3:	49 89 d0             	mov    %rdx,%r8
  402da6:	48 89 f9             	mov    %rdi,%rcx
  402da9:	48 89 f2             	mov    %rsi,%rdx
  402dac:	be f3 4e 00 00       	mov    $0x4ef3,%esi
  402db1:	bf cf 31 40 00       	mov    $0x4031cf,%edi
  402db6:	e8 29 f6 ff ff       	callq  4023e4 <submitr>
  402dbb:	eb 0e                	jmp    402dcb <driver_post+0x6d>
  402dbd:	66 c7 03 4f 4b       	movw   $0x4b4f,(%rbx)
  402dc2:	c6 43 02 00          	movb   $0x0,0x2(%rbx)
  402dc6:	b8 00 00 00 00       	mov    $0x0,%eax
  402dcb:	48 83 c4 10          	add    $0x10,%rsp
  402dcf:	5b                   	pop    %rbx
  402dd0:	c3                   	retq   

0000000000402dd1 <check>:
  402dd1:	89 f8                	mov    %edi,%eax
  402dd3:	c1 e8 1c             	shr    $0x1c,%eax
  402dd6:	85 c0                	test   %eax,%eax
  402dd8:	74 1d                	je     402df7 <check+0x26>
  402dda:	b9 00 00 00 00       	mov    $0x0,%ecx
  402ddf:	eb 0b                	jmp    402dec <check+0x1b>
  402de1:	89 f8                	mov    %edi,%eax
  402de3:	d3 e8                	shr    %cl,%eax
  402de5:	3c 0a                	cmp    $0xa,%al
  402de7:	74 14                	je     402dfd <check+0x2c>
  402de9:	83 c1 08             	add    $0x8,%ecx
  402dec:	83 f9 1f             	cmp    $0x1f,%ecx
  402def:	7e f0                	jle    402de1 <check+0x10>
  402df1:	b8 01 00 00 00       	mov    $0x1,%eax
  402df6:	c3                   	retq   
  402df7:	b8 00 00 00 00       	mov    $0x0,%eax
  402dfc:	c3                   	retq   
  402dfd:	b8 00 00 00 00       	mov    $0x0,%eax
  402e02:	c3                   	retq   

0000000000402e03 <gencookie>:
  402e03:	53                   	push   %rbx
  402e04:	83 c7 01             	add    $0x1,%edi
  402e07:	e8 a4 de ff ff       	callq  400cb0 <srandom@plt>
  402e0c:	e8 cf df ff ff       	callq  400de0 <random@plt>
  402e11:	89 c3                	mov    %eax,%ebx
  402e13:	89 c7                	mov    %eax,%edi
  402e15:	e8 b7 ff ff ff       	callq  402dd1 <check>
  402e1a:	85 c0                	test   %eax,%eax
  402e1c:	74 ee                	je     402e0c <gencookie+0x9>
  402e1e:	89 d8                	mov    %ebx,%eax
  402e20:	5b                   	pop    %rbx
  402e21:	c3                   	retq   
  402e22:	66 2e 0f 1f 84 00 00 	nopw   %cs:0x0(%rax,%rax,1)
  402e29:	00 00 00 
  402e2c:	0f 1f 40 00          	nopl   0x0(%rax)

0000000000402e30 <__libc_csu_init>:
  402e30:	41 57                	push   %r15
  402e32:	41 89 ff             	mov    %edi,%r15d
  402e35:	41 56                	push   %r14
  402e37:	49 89 f6             	mov    %rsi,%r14
  402e3a:	41 55                	push   %r13
  402e3c:	49 89 d5             	mov    %rdx,%r13
  402e3f:	41 54                	push   %r12
  402e41:	4c 8d 25 c8 0f 20 00 	lea    0x200fc8(%rip),%r12        # 603e10 <__frame_dummy_init_array_entry>
  402e48:	55                   	push   %rbp
  402e49:	48 8d 2d c8 0f 20 00 	lea    0x200fc8(%rip),%rbp        # 603e18 <__init_array_end>
  402e50:	53                   	push   %rbx
  402e51:	4c 29 e5             	sub    %r12,%rbp
  402e54:	31 db                	xor    %ebx,%ebx
  402e56:	48 c1 fd 03          	sar    $0x3,%rbp
  402e5a:	48 83 ec 08          	sub    $0x8,%rsp
  402e5e:	e8 fd dd ff ff       	callq  400c60 <_init>
  402e63:	48 85 ed             	test   %rbp,%rbp
  402e66:	74 1e                	je     402e86 <__libc_csu_init+0x56>
  402e68:	0f 1f 84 00 00 00 00 	nopl   0x0(%rax,%rax,1)
  402e6f:	00 
  402e70:	4c 89 ea             	mov    %r13,%rdx
  402e73:	4c 89 f6             	mov    %r14,%rsi
  402e76:	44 89 ff             	mov    %r15d,%edi
  402e79:	41 ff 14 dc          	callq  *(%r12,%rbx,8)
  402e7d:	48 83 c3 01          	add    $0x1,%rbx
  402e81:	48 39 eb             	cmp    %rbp,%rbx
  402e84:	75 ea                	jne    402e70 <__libc_csu_init+0x40>
  402e86:	48 83 c4 08          	add    $0x8,%rsp
  402e8a:	5b                   	pop    %rbx
  402e8b:	5d                   	pop    %rbp
  402e8c:	41 5c                	pop    %r12
  402e8e:	41 5d                	pop    %r13
  402e90:	41 5e                	pop    %r14
  402e92:	41 5f                	pop    %r15
  402e94:	c3                   	retq   
  402e95:	66 66 2e 0f 1f 84 00 	data16 nopw %cs:0x0(%rax,%rax,1)
  402e9c:	00 00 00 00 

0000000000402ea0 <__libc_csu_fini>:
  402ea0:	f3 c3                	repz retq 

Disassembly of section .fini:

0000000000402ea4 <_fini>:
  402ea4:	48 83 ec 08          	sub    $0x8,%rsp
  402ea8:	48 83 c4 08          	add    $0x8,%rsp
  402eac:	c3                   	retq   
